Archive member included because of file (symbol)

c:/program files/codesourcery/sourcery g++ lite/bin/../lib/gcc/arm-none-eabi/4.4.1/thumb2\libgcc.a(_arm_addsubsf3.o)
                              Debug/STM32Timer.o (__aeabi_ul2f)
c:/program files/codesourcery/sourcery g++ lite/bin/../lib/gcc/arm-none-eabi/4.4.1/thumb2\libgcc.a(_arm_muldivsf3.o)
                              Debug/STM32Timer.o (__aeabi_fdiv)
c:/program files/codesourcery/sourcery g++ lite/bin/../lib/gcc/arm-none-eabi/4.4.1/thumb2\libgcc.a(_arm_fixsfsi.o)
                              Debug/STM32Timer.o (__aeabi_f2iz)
c:/program files/codesourcery/sourcery g++ lite/bin/../lib/gcc/arm-none-eabi/4.4.1/../../../../arm-none-eabi/lib/thumb2\libc.a(lib_a-assert.o)
                              Debug/EplObd.o (__assert_func)
c:/program files/codesourcery/sourcery g++ lite/bin/../lib/gcc/arm-none-eabi/4.4.1/../../../../arm-none-eabi/lib/thumb2\libc.a(lib_a-fiprintf.o)
                              c:/program files/codesourcery/sourcery g++ lite/bin/../lib/gcc/arm-none-eabi/4.4.1/../../../../arm-none-eabi/lib/thumb2\libc.a(lib_a-assert.o) (fiprintf)
c:/program files/codesourcery/sourcery g++ lite/bin/../lib/gcc/arm-none-eabi/4.4.1/../../../../arm-none-eabi/lib/thumb2\libc.a(lib_a-impure.o)
                              c:/program files/codesourcery/sourcery g++ lite/bin/../lib/gcc/arm-none-eabi/4.4.1/../../../../arm-none-eabi/lib/thumb2\libc.a(lib_a-assert.o) (_impure_ptr)
c:/program files/codesourcery/sourcery g++ lite/bin/../lib/gcc/arm-none-eabi/4.4.1/../../../../arm-none-eabi/lib/thumb2\libc.a(lib_a-memcpy.o)
                              Debug/drvTask.o (memcpy)
c:/program files/codesourcery/sourcery g++ lite/bin/../lib/gcc/arm-none-eabi/4.4.1/../../../../arm-none-eabi/lib/thumb2\libc.a(lib_a-memset.o)
                              Debug/drvTask.o (memset)
c:/program files/codesourcery/sourcery g++ lite/bin/../lib/gcc/arm-none-eabi/4.4.1/../../../../arm-none-eabi/lib/thumb2\libc.a(lib_a-printf.o)
                              Debug/stf_syscalls_minimal.o (printf)
c:/program files/codesourcery/sourcery g++ lite/bin/../lib/gcc/arm-none-eabi/4.4.1/../../../../arm-none-eabi/lib/thumb2\libc.a(lib_a-reent.o)
                              Debug/stf_syscalls_minimal.o (errno)
c:/program files/codesourcery/sourcery g++ lite/bin/../lib/gcc/arm-none-eabi/4.4.1/../../../../arm-none-eabi/lib/thumb2\libc.a(lib_a-strlen.o)
                              Debug/debugging.o (strlen)
c:/program files/codesourcery/sourcery g++ lite/bin/../lib/gcc/arm-none-eabi/4.4.1/../../../../arm-none-eabi/lib/thumb2\libc.a(lib_a-strncpy.o)
                              Debug/tasks.o (strncpy)
c:/program files/codesourcery/sourcery g++ lite/bin/../lib/gcc/arm-none-eabi/4.4.1/../../../../arm-none-eabi/lib/thumb2\libc.a(lib_a-vfiprintf.o)
                              c:/program files/codesourcery/sourcery g++ lite/bin/../lib/gcc/arm-none-eabi/4.4.1/../../../../arm-none-eabi/lib/thumb2\libc.a(lib_a-fiprintf.o) (_vfiprintf_r)
c:/program files/codesourcery/sourcery g++ lite/bin/../lib/gcc/arm-none-eabi/4.4.1/../../../../arm-none-eabi/lib/thumb2\libc.a(lib_a-vfprintf.o)
                              c:/program files/codesourcery/sourcery g++ lite/bin/../lib/gcc/arm-none-eabi/4.4.1/../../../../arm-none-eabi/lib/thumb2\libc.a(lib_a-printf.o) (_vfprintf_r)
c:/program files/codesourcery/sourcery g++ lite/bin/../lib/gcc/arm-none-eabi/4.4.1/../../../../arm-none-eabi/lib/thumb2\libc.a(lib_a-wsetup.o)
                              c:/program files/codesourcery/sourcery g++ lite/bin/../lib/gcc/arm-none-eabi/4.4.1/../../../../arm-none-eabi/lib/thumb2\libc.a(lib_a-vfiprintf.o) (__swsetup_r)
c:/program files/codesourcery/sourcery g++ lite/bin/../lib/gcc/arm-none-eabi/4.4.1/../../../../arm-none-eabi/lib/thumb2\libc.a(lib_a-abort.o)
                              c:/program files/codesourcery/sourcery g++ lite/bin/../lib/gcc/arm-none-eabi/4.4.1/../../../../arm-none-eabi/lib/thumb2\libc.a(lib_a-assert.o) (abort)
c:/program files/codesourcery/sourcery g++ lite/bin/../lib/gcc/arm-none-eabi/4.4.1/../../../../arm-none-eabi/lib/thumb2\libc.a(lib_a-dtoa.o)
                              c:/program files/codesourcery/sourcery g++ lite/bin/../lib/gcc/arm-none-eabi/4.4.1/../../../../arm-none-eabi/lib/thumb2\libc.a(lib_a-vfprintf.o) (_dtoa_r)
c:/program files/codesourcery/sourcery g++ lite/bin/../lib/gcc/arm-none-eabi/4.4.1/../../../../arm-none-eabi/lib/thumb2\libc.a(lib_a-fflush.o)
                              c:/program files/codesourcery/sourcery g++ lite/bin/../lib/gcc/arm-none-eabi/4.4.1/../../../../arm-none-eabi/lib/thumb2\libc.a(lib_a-vfiprintf.o) (_fflush_r)
c:/program files/codesourcery/sourcery g++ lite/bin/../lib/gcc/arm-none-eabi/4.4.1/../../../../arm-none-eabi/lib/thumb2\libc.a(lib_a-findfp.o)
                              c:/program files/codesourcery/sourcery g++ lite/bin/../lib/gcc/arm-none-eabi/4.4.1/../../../../arm-none-eabi/lib/thumb2\libc.a(lib_a-printf.o) (__sinit)
c:/program files/codesourcery/sourcery g++ lite/bin/../lib/gcc/arm-none-eabi/4.4.1/../../../../arm-none-eabi/lib/thumb2\libc.a(lib_a-freer.o)
                              c:/program files/codesourcery/sourcery g++ lite/bin/../lib/gcc/arm-none-eabi/4.4.1/../../../../arm-none-eabi/lib/thumb2\libc.a(lib_a-reent.o) (_free_r)
c:/program files/codesourcery/sourcery g++ lite/bin/../lib/gcc/arm-none-eabi/4.4.1/../../../../arm-none-eabi/lib/thumb2\libc.a(lib_a-fvwrite.o)
                              c:/program files/codesourcery/sourcery g++ lite/bin/../lib/gcc/arm-none-eabi/4.4.1/../../../../arm-none-eabi/lib/thumb2\libc.a(lib_a-vfiprintf.o) (__sfvwrite_r)
c:/program files/codesourcery/sourcery g++ lite/bin/../lib/gcc/arm-none-eabi/4.4.1/../../../../arm-none-eabi/lib/thumb2\libc.a(lib_a-fwalk.o)
                              c:/program files/codesourcery/sourcery g++ lite/bin/../lib/gcc/arm-none-eabi/4.4.1/../../../../arm-none-eabi/lib/thumb2\libc.a(lib_a-fflush.o) (_fwalk_reent)
c:/program files/codesourcery/sourcery g++ lite/bin/../lib/gcc/arm-none-eabi/4.4.1/../../../../arm-none-eabi/lib/thumb2\libc.a(lib_a-locale.o)
                              c:/program files/codesourcery/sourcery g++ lite/bin/../lib/gcc/arm-none-eabi/4.4.1/../../../../arm-none-eabi/lib/thumb2\libc.a(lib_a-vfprintf.o) (_localeconv_r)
c:/program files/codesourcery/sourcery g++ lite/bin/../lib/gcc/arm-none-eabi/4.4.1/../../../../arm-none-eabi/lib/thumb2\libc.a(lib_a-makebuf.o)
                              c:/program files/codesourcery/sourcery g++ lite/bin/../lib/gcc/arm-none-eabi/4.4.1/../../../../arm-none-eabi/lib/thumb2\libc.a(lib_a-wsetup.o) (__smakebuf_r)
c:/program files/codesourcery/sourcery g++ lite/bin/../lib/gcc/arm-none-eabi/4.4.1/../../../../arm-none-eabi/lib/thumb2\libc.a(lib_a-malloc.o)
                              c:/program files/codesourcery/sourcery g++ lite/bin/../lib/gcc/arm-none-eabi/4.4.1/../../../../arm-none-eabi/lib/thumb2\libc.a(lib_a-dtoa.o) (malloc)
c:/program files/codesourcery/sourcery g++ lite/bin/../lib/gcc/arm-none-eabi/4.4.1/../../../../arm-none-eabi/lib/thumb2\libc.a(lib_a-mallocr.o)
                              c:/program files/codesourcery/sourcery g++ lite/bin/../lib/gcc/arm-none-eabi/4.4.1/../../../../arm-none-eabi/lib/thumb2\libc.a(lib_a-findfp.o) (_malloc_r)
c:/program files/codesourcery/sourcery g++ lite/bin/../lib/gcc/arm-none-eabi/4.4.1/../../../../arm-none-eabi/lib/thumb2\libc.a(lib_a-memchr.o)
                              c:/program files/codesourcery/sourcery g++ lite/bin/../lib/gcc/arm-none-eabi/4.4.1/../../../../arm-none-eabi/lib/thumb2\libc.a(lib_a-vfiprintf.o) (memchr)
c:/program files/codesourcery/sourcery g++ lite/bin/../lib/gcc/arm-none-eabi/4.4.1/../../../../arm-none-eabi/lib/thumb2\libc.a(lib_a-memmove.o)
                              c:/program files/codesourcery/sourcery g++ lite/bin/../lib/gcc/arm-none-eabi/4.4.1/../../../../arm-none-eabi/lib/thumb2\libc.a(lib_a-fvwrite.o) (memmove)
c:/program files/codesourcery/sourcery g++ lite/bin/../lib/gcc/arm-none-eabi/4.4.1/../../../../arm-none-eabi/lib/thumb2\libc.a(lib_a-mlock.o)
                              c:/program files/codesourcery/sourcery g++ lite/bin/../lib/gcc/arm-none-eabi/4.4.1/../../../../arm-none-eabi/lib/thumb2\libc.a(lib_a-freer.o) (__malloc_lock)
c:/program files/codesourcery/sourcery g++ lite/bin/../lib/gcc/arm-none-eabi/4.4.1/../../../../arm-none-eabi/lib/thumb2\libc.a(lib_a-mprec.o)
                              c:/program files/codesourcery/sourcery g++ lite/bin/../lib/gcc/arm-none-eabi/4.4.1/../../../../arm-none-eabi/lib/thumb2\libc.a(lib_a-dtoa.o) (__hi0bits)
c:/program files/codesourcery/sourcery g++ lite/bin/../lib/gcc/arm-none-eabi/4.4.1/../../../../arm-none-eabi/lib/thumb2\libc.a(lib_a-reallocr.o)
                              c:/program files/codesourcery/sourcery g++ lite/bin/../lib/gcc/arm-none-eabi/4.4.1/../../../../arm-none-eabi/lib/thumb2\libc.a(lib_a-fvwrite.o) (_realloc_r)
c:/program files/codesourcery/sourcery g++ lite/bin/../lib/gcc/arm-none-eabi/4.4.1/../../../../arm-none-eabi/lib/thumb2\libc.a(lib_a-s_isinfd.o)
                              c:/program files/codesourcery/sourcery g++ lite/bin/../lib/gcc/arm-none-eabi/4.4.1/../../../../arm-none-eabi/lib/thumb2\libc.a(lib_a-vfprintf.o) (__isinfd)
c:/program files/codesourcery/sourcery g++ lite/bin/../lib/gcc/arm-none-eabi/4.4.1/../../../../arm-none-eabi/lib/thumb2\libc.a(lib_a-s_isnand.o)
                              c:/program files/codesourcery/sourcery g++ lite/bin/../lib/gcc/arm-none-eabi/4.4.1/../../../../arm-none-eabi/lib/thumb2\libc.a(lib_a-vfprintf.o) (__isnand)
c:/program files/codesourcery/sourcery g++ lite/bin/../lib/gcc/arm-none-eabi/4.4.1/../../../../arm-none-eabi/lib/thumb2\libc.a(lib_a-sbrkr.o)
                              c:/program files/codesourcery/sourcery g++ lite/bin/../lib/gcc/arm-none-eabi/4.4.1/../../../../arm-none-eabi/lib/thumb2\libc.a(lib_a-freer.o) (_sbrk_r)
c:/program files/codesourcery/sourcery g++ lite/bin/../lib/gcc/arm-none-eabi/4.4.1/../../../../arm-none-eabi/lib/thumb2\libc.a(lib_a-signal.o)
                              c:/program files/codesourcery/sourcery g++ lite/bin/../lib/gcc/arm-none-eabi/4.4.1/../../../../arm-none-eabi/lib/thumb2\libc.a(lib_a-abort.o) (raise)
c:/program files/codesourcery/sourcery g++ lite/bin/../lib/gcc/arm-none-eabi/4.4.1/../../../../arm-none-eabi/lib/thumb2\libc.a(lib_a-signalr.o)
                              c:/program files/codesourcery/sourcery g++ lite/bin/../lib/gcc/arm-none-eabi/4.4.1/../../../../arm-none-eabi/lib/thumb2\libc.a(lib_a-signal.o) (_getpid_r)
c:/program files/codesourcery/sourcery g++ lite/bin/../lib/gcc/arm-none-eabi/4.4.1/../../../../arm-none-eabi/lib/thumb2\libc.a(lib_a-stdio.o)
                              c:/program files/codesourcery/sourcery g++ lite/bin/../lib/gcc/arm-none-eabi/4.4.1/../../../../arm-none-eabi/lib/thumb2\libc.a(lib_a-findfp.o) (__sclose)
c:/program files/codesourcery/sourcery g++ lite/bin/../lib/gcc/arm-none-eabi/4.4.1/../../../../arm-none-eabi/lib/thumb2\libc.a(lib_a-strcmp.o)
                              c:/program files/codesourcery/sourcery g++ lite/bin/../lib/gcc/arm-none-eabi/4.4.1/../../../../arm-none-eabi/lib/thumb2\libc.a(lib_a-locale.o) (strcmp)
c:/program files/codesourcery/sourcery g++ lite/bin/../lib/gcc/arm-none-eabi/4.4.1/../../../../arm-none-eabi/lib/thumb2\libc.a(lib_a-writer.o)
                              c:/program files/codesourcery/sourcery g++ lite/bin/../lib/gcc/arm-none-eabi/4.4.1/../../../../arm-none-eabi/lib/thumb2\libc.a(lib_a-stdio.o) (_write_r)
c:/program files/codesourcery/sourcery g++ lite/bin/../lib/gcc/arm-none-eabi/4.4.1/../../../../arm-none-eabi/lib/thumb2\libc.a(lib_a-callocr.o)
                              c:/program files/codesourcery/sourcery g++ lite/bin/../lib/gcc/arm-none-eabi/4.4.1/../../../../arm-none-eabi/lib/thumb2\libc.a(lib_a-mprec.o) (_calloc_r)
c:/program files/codesourcery/sourcery g++ lite/bin/../lib/gcc/arm-none-eabi/4.4.1/../../../../arm-none-eabi/lib/thumb2\libc.a(lib_a-closer.o)
                              c:/program files/codesourcery/sourcery g++ lite/bin/../lib/gcc/arm-none-eabi/4.4.1/../../../../arm-none-eabi/lib/thumb2\libc.a(lib_a-stdio.o) (_close_r)
c:/program files/codesourcery/sourcery g++ lite/bin/../lib/gcc/arm-none-eabi/4.4.1/../../../../arm-none-eabi/lib/thumb2\libc.a(lib_a-fclose.o)
                              c:/program files/codesourcery/sourcery g++ lite/bin/../lib/gcc/arm-none-eabi/4.4.1/../../../../arm-none-eabi/lib/thumb2\libc.a(lib_a-findfp.o) (fclose)
c:/program files/codesourcery/sourcery g++ lite/bin/../lib/gcc/arm-none-eabi/4.4.1/../../../../arm-none-eabi/lib/thumb2\libc.a(lib_a-fstatr.o)
                              c:/program files/codesourcery/sourcery g++ lite/bin/../lib/gcc/arm-none-eabi/4.4.1/../../../../arm-none-eabi/lib/thumb2\libc.a(lib_a-makebuf.o) (_fstat_r)
c:/program files/codesourcery/sourcery g++ lite/bin/../lib/gcc/arm-none-eabi/4.4.1/../../../../arm-none-eabi/lib/thumb2\libc.a(lib_a-isattyr.o)
                              c:/program files/codesourcery/sourcery g++ lite/bin/../lib/gcc/arm-none-eabi/4.4.1/../../../../arm-none-eabi/lib/thumb2\libc.a(lib_a-makebuf.o) (_isatty_r)
c:/program files/codesourcery/sourcery g++ lite/bin/../lib/gcc/arm-none-eabi/4.4.1/../../../../arm-none-eabi/lib/thumb2\libc.a(lib_a-lseekr.o)
                              c:/program files/codesourcery/sourcery g++ lite/bin/../lib/gcc/arm-none-eabi/4.4.1/../../../../arm-none-eabi/lib/thumb2\libc.a(lib_a-stdio.o) (_lseek_r)
c:/program files/codesourcery/sourcery g++ lite/bin/../lib/gcc/arm-none-eabi/4.4.1/../../../../arm-none-eabi/lib/thumb2\libc.a(lib_a-readr.o)
                              c:/program files/codesourcery/sourcery g++ lite/bin/../lib/gcc/arm-none-eabi/4.4.1/../../../../arm-none-eabi/lib/thumb2\libc.a(lib_a-stdio.o) (_read_r)
c:/program files/codesourcery/sourcery g++ lite/bin/../lib/gcc/arm-none-eabi/4.4.1/thumb2\libgcc.a(_udivsi3.o)
                              c:/program files/codesourcery/sourcery g++ lite/bin/../lib/gcc/arm-none-eabi/4.4.1/../../../../arm-none-eabi/lib/thumb2\libc.a(lib_a-dtoa.o) (__aeabi_uidiv)
c:/program files/codesourcery/sourcery g++ lite/bin/../lib/gcc/arm-none-eabi/4.4.1/thumb2\libgcc.a(_dvmd_tls.o)
                              c:/program files/codesourcery/sourcery g++ lite/bin/../lib/gcc/arm-none-eabi/4.4.1/thumb2\libgcc.a(_udivsi3.o) (__aeabi_idiv0)
c:/program files/codesourcery/sourcery g++ lite/bin/../lib/gcc/arm-none-eabi/4.4.1/thumb2\libgcc.a(_arm_addsubdf3.o)
                              c:/program files/codesourcery/sourcery g++ lite/bin/../lib/gcc/arm-none-eabi/4.4.1/../../../../arm-none-eabi/lib/thumb2\libc.a(lib_a-dtoa.o) (__aeabi_dsub)
c:/program files/codesourcery/sourcery g++ lite/bin/../lib/gcc/arm-none-eabi/4.4.1/thumb2\libgcc.a(_arm_muldivdf3.o)
                              c:/program files/codesourcery/sourcery g++ lite/bin/../lib/gcc/arm-none-eabi/4.4.1/../../../../arm-none-eabi/lib/thumb2\libc.a(lib_a-dtoa.o) (__aeabi_dmul)
c:/program files/codesourcery/sourcery g++ lite/bin/../lib/gcc/arm-none-eabi/4.4.1/thumb2\libgcc.a(_arm_cmpdf2.o)
                              c:/program files/codesourcery/sourcery g++ lite/bin/../lib/gcc/arm-none-eabi/4.4.1/../../../../arm-none-eabi/lib/thumb2\libc.a(lib_a-vfprintf.o) (__aeabi_dcmpeq)
c:/program files/codesourcery/sourcery g++ lite/bin/../lib/gcc/arm-none-eabi/4.4.1/thumb2\libgcc.a(_arm_fixdfsi.o)
                              c:/program files/codesourcery/sourcery g++ lite/bin/../lib/gcc/arm-none-eabi/4.4.1/../../../../arm-none-eabi/lib/thumb2\libc.a(lib_a-dtoa.o) (__aeabi_d2iz)
c:/program files/codesourcery/sourcery g++ lite/bin/../lib/gcc/arm-none-eabi/4.4.1/thumb2\libgcc.a(_aeabi_uldivmod.o)
                              c:/program files/codesourcery/sourcery g++ lite/bin/../lib/gcc/arm-none-eabi/4.4.1/../../../../arm-none-eabi/lib/thumb2\libc.a(lib_a-vfiprintf.o) (__aeabi_uldivmod)
c:/program files/codesourcery/sourcery g++ lite/bin/../lib/gcc/arm-none-eabi/4.4.1/thumb2\libgcc.a(bpabi.o)
                              c:/program files/codesourcery/sourcery g++ lite/bin/../lib/gcc/arm-none-eabi/4.4.1/thumb2\libgcc.a(_aeabi_uldivmod.o) (__gnu_uldivmod_helper)
c:/program files/codesourcery/sourcery g++ lite/bin/../lib/gcc/arm-none-eabi/4.4.1/thumb2\libgcc.a(_divdi3.o)
                              c:/program files/codesourcery/sourcery g++ lite/bin/../lib/gcc/arm-none-eabi/4.4.1/thumb2\libgcc.a(bpabi.o) (__divdi3)
c:/program files/codesourcery/sourcery g++ lite/bin/../lib/gcc/arm-none-eabi/4.4.1/thumb2\libgcc.a(_udivdi3.o)
                              c:/program files/codesourcery/sourcery g++ lite/bin/../lib/gcc/arm-none-eabi/4.4.1/thumb2\libgcc.a(bpabi.o) (__udivdi3)

Allocating common symbols
Common symbol       size              file

bVarIn2             0x1               Debug/drvTask.o
DMAPTPRxDescToGet   0x4               Debug/stm32_eth.o
errno               0x4               c:/program files/codesourcery/sourcery g++ lite/bin/../lib/gcc/arm-none-eabi/4.4.1/../../../../arm-none-eabi/lib/thumb2\libc.a(lib_a-reent.o)
DMARxDescToGet      0x4               Debug/stm32_eth.o
eventQueue          0x4               Debug/main.o
ipcCommandsProcessedQueue
                    0x4               Debug/main.o
DMATxDescToSet      0x4               Debug/stm32_eth.o
bVarOut1            0x1               Debug/drvTask.o
xTxDescriptor       0x10              Debug/EdrvF107.o
ulTgtDllkFlags      0x4               Debug/EplDllk.o
abEplObdTrashObject_g
                    0x8               Debug/EplObd.o
ipcCommandsToProcessQueue
                    0x4               Debug/main.o
bVarIn1             0x1               Debug/drvTask.o
timers_pool         0x50              Debug/STM32Timer.o
g_lcdQueue          0x4               Debug/main.o
EdrvInstance_l      0x7c              Debug/EdrvF107.o
abDomain_l          0x3               Debug/drvTask.o
indirizzo           0x4               Debug/tasks.o
bVarOut2            0x1               Debug/drvTask.o
DMAPTPTxDescToSet   0x4               Debug/stm32_eth.o
bVarOut1Old_l       0x1               Debug/drvTask.o

Memory Configuration

Name             Origin             Length             Attributes
FLASH            0x00000000         0x00040000         xr
SRAM             0x20000000         0x00010000         xrw
*default*        0x00000000         0xffffffff

Linker script and memory map

LOAD Debug/main.o
LOAD Debug/stm32f10x_it.o
LOAD Debug/stf_syscalls_minimal.o
LOAD Debug/ledTask.o
LOAD Debug/stm3210c_eval_lcd.o
LOAD Debug/drvTask.o
LOAD Debug/debugging.o
LOAD Debug/LedHandler.o
LOAD Debug/PushButton.o
LOAD Debug/core_cm3.o
LOAD Debug/system_stm32f10x.o
LOAD Debug/misc.o
LOAD Debug/stm32f10x_rcc.o
LOAD Debug/stm32f10x_flash.o
LOAD Debug/stm32f10x_gpio.o
LOAD Debug/stm32f10x_tim.o
LOAD Debug/stm32f10x_spi.o
LOAD Debug/stm32_eth.o
LOAD Debug/list.o
LOAD Debug/queue.o
LOAD Debug/tasks.o
LOAD Debug/port.o
LOAD Debug/heap_2.o
LOAD Debug/amiarm.o
LOAD Debug/EplApiGeneric.o
LOAD Debug/EplApiProcessImage.o
LOAD Debug/EplDllk.o
LOAD Debug/EplDllkCal.o
LOAD Debug/EplDlluCal.o
LOAD Debug/EplErrorHandlerk.o
LOAD Debug/EplEventk.o
LOAD Debug/EplEventu.o
LOAD Debug/EplIdentu.o
LOAD Debug/EplLedu.o
LOAD Debug/EplNmtCnu.o
LOAD Debug/EplNmtk.o
LOAD Debug/EplNmtkCal.o
LOAD Debug/EplNmtMnu.o
LOAD Debug/EplNmtu.o
LOAD Debug/EplNmtuCal.o
LOAD Debug/EplObd.o
LOAD Debug/EplObdkCal.o
LOAD Debug/EplObdu.o
LOAD Debug/EplObduCal.o
LOAD Debug/EplPdok.o
LOAD Debug/EplPdokCal.o
LOAD Debug/EplPdouCal.o
LOAD Debug/EplPdou.o
LOAD Debug/EplSdoAsndu.o
LOAD Debug/EplSdoAsySequ.o
LOAD Debug/EplSdoComu.o
LOAD Debug/EplSdoUdpu.o
LOAD Debug/EplStatusu.o
LOAD Debug/EplTimeruGeneric.o
LOAD Debug/EplApiFreeRTOS.o
LOAD Debug/Objdict.o
LOAD Debug/EdrvF107.o
LOAD Debug/STM32Timer.o
LOAD Debug/startup_stm32f10x.o
START GROUP
LOAD c:/program files/codesourcery/sourcery g++ lite/bin/../lib/gcc/arm-none-eabi/4.4.1/thumb2\libgcc.a
LOAD c:/program files/codesourcery/sourcery g++ lite/bin/../lib/gcc/arm-none-eabi/4.4.1/../../../../arm-none-eabi/lib/thumb2\libc.a
END GROUP

.text           0x00000000    0x2a218
 *(.isr_vector)
 .isr_vector    0x00000000      0x1e0 Debug/startup_stm32f10x.o
                0x00000000                g_pfnVectors
 *(.text .text.* .gnu.linkonce.t.*)
 .text          0x000001e0        0x0 Debug/main.o
 .text.__enable_irq
                0x000001e0        0xc Debug/main.o
 .text.__disable_irq
                0x000001ec        0xc Debug/main.o
 .text.__enable_fault_irq
                0x000001f8        0xc Debug/main.o
 .text.__disable_fault_irq
                0x00000204        0xc Debug/main.o
 .text.__NOP    0x00000210        0xc Debug/main.o
 .text.__WFI    0x0000021c        0xc Debug/main.o
 .text.__WFE    0x00000228        0xc Debug/main.o
 .text.__SEV    0x00000234        0xc Debug/main.o
 .text.__ISB    0x00000240       0x10 Debug/main.o
 .text.__DSB    0x00000250       0x10 Debug/main.o
 .text.__DMB    0x00000260       0x10 Debug/main.o
 .text.__CLREX  0x00000270       0x10 Debug/main.o
 .text.NVIC_SetPriorityGrouping
                0x00000280       0x58 Debug/main.o
 .text.NVIC_GetPriorityGrouping
                0x000002d8       0x20 Debug/main.o
 .text.NVIC_EnableIRQ
                0x000002f8       0x38 Debug/main.o
 .text.NVIC_DisableIRQ
                0x00000330       0x3c Debug/main.o
 .text.NVIC_GetPendingIRQ
                0x0000036c       0x48 Debug/main.o
 .text.NVIC_SetPendingIRQ
                0x000003b4       0x3c Debug/main.o
 .text.NVIC_ClearPendingIRQ
                0x000003f0       0x3c Debug/main.o
 .text.NVIC_GetActive
                0x0000042c       0x48 Debug/main.o
 .text.NVIC_SetPriority
                0x00000474       0x5c Debug/main.o
 .text.NVIC_GetPriority
                0x000004d0       0x58 Debug/main.o
 .text.NVIC_EncodePriority
                0x00000528       0x7c Debug/main.o
 .text.NVIC_DecodePriority
                0x000005a4       0x80 Debug/main.o
 .text.SysTick_Config
                0x00000624       0x64 Debug/main.o
 .text.NVIC_SystemReset
                0x00000688       0x30 Debug/main.o
 .text.ITM_SendChar
                0x000006b8       0x6c Debug/main.o
 .text.main     0x00000724       0x8c Debug/main.o
                0x00000724                main
 .text.prvSetupHardware
                0x000007b0       0x44 Debug/main.o
 .text.ledFunction
                0x000007f4       0x14 Debug/main.o
                0x000007f4                ledFunction
 .text.putChar  0x00000808       0x18 Debug/main.o
                0x00000808                putChar
 .text.vApplicationTickHook
                0x00000820        0xc Debug/main.o
                0x00000820                vApplicationTickHook
 .text.vApplicationStackOverflowHook
                0x0000082c        0xc Debug/main.o
                0x0000082c                vApplicationStackOverflowHook
 .text          0x00000838        0x0 Debug/stm32f10x_it.o
 .text.__enable_irq
                0x00000838        0xc Debug/stm32f10x_it.o
 .text.__disable_irq
                0x00000844        0xc Debug/stm32f10x_it.o
 .text.__enable_fault_irq
                0x00000850        0xc Debug/stm32f10x_it.o
 .text.__disable_fault_irq
                0x0000085c        0xc Debug/stm32f10x_it.o
 .text.__NOP    0x00000868        0xc Debug/stm32f10x_it.o
 .text.__WFI    0x00000874        0xc Debug/stm32f10x_it.o
 .text.__WFE    0x00000880        0xc Debug/stm32f10x_it.o
 .text.__SEV    0x0000088c        0xc Debug/stm32f10x_it.o
 .text.__ISB    0x00000898       0x10 Debug/stm32f10x_it.o
 .text.__DSB    0x000008a8       0x10 Debug/stm32f10x_it.o
 .text.__DMB    0x000008b8       0x10 Debug/stm32f10x_it.o
 .text.__CLREX  0x000008c8       0x10 Debug/stm32f10x_it.o
 .text.NVIC_SetPriorityGrouping
                0x000008d8       0x58 Debug/stm32f10x_it.o
 .text.NVIC_GetPriorityGrouping
                0x00000930       0x20 Debug/stm32f10x_it.o
 .text.NVIC_EnableIRQ
                0x00000950       0x38 Debug/stm32f10x_it.o
 .text.NVIC_DisableIRQ
                0x00000988       0x3c Debug/stm32f10x_it.o
 .text.NVIC_GetPendingIRQ
                0x000009c4       0x48 Debug/stm32f10x_it.o
 .text.NVIC_SetPendingIRQ
                0x00000a0c       0x3c Debug/stm32f10x_it.o
 .text.NVIC_ClearPendingIRQ
                0x00000a48       0x3c Debug/stm32f10x_it.o
 .text.NVIC_GetActive
                0x00000a84       0x48 Debug/stm32f10x_it.o
 .text.NVIC_SetPriority
                0x00000acc       0x5c Debug/stm32f10x_it.o
 .text.NVIC_GetPriority
                0x00000b28       0x58 Debug/stm32f10x_it.o
 .text.NVIC_EncodePriority
                0x00000b80       0x7c Debug/stm32f10x_it.o
 .text.NVIC_DecodePriority
                0x00000bfc       0x80 Debug/stm32f10x_it.o
 .text.SysTick_Config
                0x00000c7c       0x64 Debug/stm32f10x_it.o
 .text.NVIC_SystemReset
                0x00000ce0       0x30 Debug/stm32f10x_it.o
 .text.ITM_SendChar
                0x00000d10       0x6c Debug/stm32f10x_it.o
 .text.NMI_Handler
                0x00000d7c        0xc Debug/stm32f10x_it.o
                0x00000d7c                NMI_Handler
 .text.HardFault_Handler
                0x00000d88        0x8 Debug/stm32f10x_it.o
                0x00000d88                HardFault_Handler
 .text.MemManage_Handler
                0x00000d90        0x8 Debug/stm32f10x_it.o
                0x00000d90                MemManage_Handler
 .text.BusFault_Handler
                0x00000d98        0x8 Debug/stm32f10x_it.o
                0x00000d98                BusFault_Handler
 .text.UsageFault_Handler
                0x00000da0        0x8 Debug/stm32f10x_it.o
                0x00000da0                UsageFault_Handler
 .text.DebugMon_Handler
                0x00000da8        0xc Debug/stm32f10x_it.o
                0x00000da8                DebugMon_Handler
 .text          0x00000db4        0x0 Debug/stf_syscalls_minimal.o
 .text._exit    0x00000db4       0x18 Debug/stf_syscalls_minimal.o
                0x00000db4                _exit
 .text._write   0x00000dcc       0x3c Debug/stf_syscalls_minimal.o
                0x00000dcc                _write
 .text._close   0x00000e08       0x18 Debug/stf_syscalls_minimal.o
                0x00000e08                _close
 .text._fstat   0x00000e20       0x24 Debug/stf_syscalls_minimal.o
                0x00000e20                _fstat
 .text._isatty  0x00000e44       0x18 Debug/stf_syscalls_minimal.o
                0x00000e44                _isatty
 .text._lseek   0x00000e5c       0x1c Debug/stf_syscalls_minimal.o
                0x00000e5c                _lseek
 .text._read    0x00000e78       0x1c Debug/stf_syscalls_minimal.o
                0x00000e78                _read
 .text._sbrk    0x00000e94       0x88 Debug/stf_syscalls_minimal.o
                0x00000e94                _sbrk
 .text._open    0x00000f1c       0x1c Debug/stf_syscalls_minimal.o
                0x00000f1c                _open
 .text._link    0x00000f38       0x28 Debug/stf_syscalls_minimal.o
                0x00000f38                _link
 .text._unlink  0x00000f60       0x28 Debug/stf_syscalls_minimal.o
                0x00000f60                _unlink
 .text._stat    0x00000f88       0x24 Debug/stf_syscalls_minimal.o
                0x00000f88                _stat
 .text._execve  0x00000fac       0x2c Debug/stf_syscalls_minimal.o
                0x00000fac                _execve
 .text._fork    0x00000fd8       0x20 Debug/stf_syscalls_minimal.o
                0x00000fd8                _fork
 .text._getpid  0x00000ff8       0x10 Debug/stf_syscalls_minimal.o
                0x00000ff8                _getpid
 .text._kill    0x00001008       0x28 Debug/stf_syscalls_minimal.o
                0x00001008                _kill
 .text.times    0x00001030       0x18 Debug/stf_syscalls_minimal.o
                0x00001030                times
 .text._wait    0x00001048       0x28 Debug/stf_syscalls_minimal.o
                0x00001048                _wait
 .text          0x00001070        0x0 Debug/ledTask.o
 .text.__enable_irq
                0x00001070        0xc Debug/ledTask.o
 .text.__disable_irq
                0x0000107c        0xc Debug/ledTask.o
 .text.__enable_fault_irq
                0x00001088        0xc Debug/ledTask.o
 .text.__disable_fault_irq
                0x00001094        0xc Debug/ledTask.o
 .text.__NOP    0x000010a0        0xc Debug/ledTask.o
 .text.__WFI    0x000010ac        0xc Debug/ledTask.o
 .text.__WFE    0x000010b8        0xc Debug/ledTask.o
 .text.__SEV    0x000010c4        0xc Debug/ledTask.o
 .text.__ISB    0x000010d0       0x10 Debug/ledTask.o
 .text.__DSB    0x000010e0       0x10 Debug/ledTask.o
 .text.__DMB    0x000010f0       0x10 Debug/ledTask.o
 .text.__CLREX  0x00001100       0x10 Debug/ledTask.o
 .text.NVIC_SetPriorityGrouping
                0x00001110       0x58 Debug/ledTask.o
 .text.NVIC_GetPriorityGrouping
                0x00001168       0x20 Debug/ledTask.o
 .text.NVIC_EnableIRQ
                0x00001188       0x38 Debug/ledTask.o
 .text.NVIC_DisableIRQ
                0x000011c0       0x3c Debug/ledTask.o
 .text.NVIC_GetPendingIRQ
                0x000011fc       0x48 Debug/ledTask.o
 .text.NVIC_SetPendingIRQ
                0x00001244       0x3c Debug/ledTask.o
 .text.NVIC_ClearPendingIRQ
                0x00001280       0x3c Debug/ledTask.o
 .text.NVIC_GetActive
                0x000012bc       0x48 Debug/ledTask.o
 .text.NVIC_SetPriority
                0x00001304       0x5c Debug/ledTask.o
 .text.NVIC_GetPriority
                0x00001360       0x58 Debug/ledTask.o
 .text.NVIC_EncodePriority
                0x000013b8       0x7c Debug/ledTask.o
 .text.NVIC_DecodePriority
                0x00001434       0x80 Debug/ledTask.o
 .text.SysTick_Config
                0x000014b4       0x64 Debug/ledTask.o
 .text.NVIC_SystemReset
                0x00001518       0x30 Debug/ledTask.o
 .text.ITM_SendChar
                0x00001548       0x6c Debug/ledTask.o
 .text.ledInitTask
                0x000015b4       0xe4 Debug/ledTask.o
                0x000015b4                ledInitTask
 .text.ledStartTask
                0x00001698       0x9c Debug/ledTask.o
                0x00001698                ledStartTask
 .text.ledTaskFunc
                0x00001734       0x5c Debug/ledTask.o
 .text.ledToggle
                0x00001790        0xc Debug/ledTask.o
 .text.ledFindFactors
                0x0000179c      0x108 Debug/ledTask.o
 .text          0x000018a4        0x0 Debug/stm3210c_eval_lcd.o
 .text.__enable_irq
                0x000018a4        0xc Debug/stm3210c_eval_lcd.o
 .text.__disable_irq
                0x000018b0        0xc Debug/stm3210c_eval_lcd.o
 .text.__enable_fault_irq
                0x000018bc        0xc Debug/stm3210c_eval_lcd.o
 .text.__disable_fault_irq
                0x000018c8        0xc Debug/stm3210c_eval_lcd.o
 .text.__NOP    0x000018d4        0xc Debug/stm3210c_eval_lcd.o
 .text.__WFI    0x000018e0        0xc Debug/stm3210c_eval_lcd.o
 .text.__WFE    0x000018ec        0xc Debug/stm3210c_eval_lcd.o
 .text.__SEV    0x000018f8        0xc Debug/stm3210c_eval_lcd.o
 .text.__ISB    0x00001904       0x10 Debug/stm3210c_eval_lcd.o
 .text.__DSB    0x00001914       0x10 Debug/stm3210c_eval_lcd.o
 .text.__DMB    0x00001924       0x10 Debug/stm3210c_eval_lcd.o
 .text.__CLREX  0x00001934       0x10 Debug/stm3210c_eval_lcd.o
 .text.NVIC_SetPriorityGrouping
                0x00001944       0x58 Debug/stm3210c_eval_lcd.o
 .text.NVIC_GetPriorityGrouping
                0x0000199c       0x20 Debug/stm3210c_eval_lcd.o
 .text.NVIC_EnableIRQ
                0x000019bc       0x38 Debug/stm3210c_eval_lcd.o
 .text.NVIC_DisableIRQ
                0x000019f4       0x3c Debug/stm3210c_eval_lcd.o
 .text.NVIC_GetPendingIRQ
                0x00001a30       0x48 Debug/stm3210c_eval_lcd.o
 .text.NVIC_SetPendingIRQ
                0x00001a78       0x3c Debug/stm3210c_eval_lcd.o
 .text.NVIC_ClearPendingIRQ
                0x00001ab4       0x3c Debug/stm3210c_eval_lcd.o
 .text.NVIC_GetActive
                0x00001af0       0x48 Debug/stm3210c_eval_lcd.o
 .text.NVIC_SetPriority
                0x00001b38       0x5c Debug/stm3210c_eval_lcd.o
 .text.NVIC_GetPriority
                0x00001b94       0x58 Debug/stm3210c_eval_lcd.o
 .text.NVIC_EncodePriority
                0x00001bec       0x7c Debug/stm3210c_eval_lcd.o
 .text.NVIC_DecodePriority
                0x00001c68       0x80 Debug/stm3210c_eval_lcd.o
 .text.SysTick_Config
                0x00001ce8       0x64 Debug/stm3210c_eval_lcd.o
 .text.NVIC_SystemReset
                0x00001d4c       0x30 Debug/stm3210c_eval_lcd.o
 .text.ITM_SendChar
                0x00001d7c       0x6c Debug/stm3210c_eval_lcd.o
 .text.LCD_Setup
                0x00001de8      0x2c0 Debug/stm3210c_eval_lcd.o
                0x00001de8                LCD_Setup
 .text.STM3210C_LCD_Init
                0x000020a8        0xc Debug/stm3210c_eval_lcd.o
                0x000020a8                STM3210C_LCD_Init
 .text.LCD_SetTextColor
                0x000020b4       0x24 Debug/stm3210c_eval_lcd.o
                0x000020b4                LCD_SetTextColor
 .text.LCD_SetBackColor
                0x000020d8       0x24 Debug/stm3210c_eval_lcd.o
                0x000020d8                LCD_SetBackColor
 .text.LCD_ClearLine
                0x000020fc       0x24 Debug/stm3210c_eval_lcd.o
                0x000020fc                LCD_ClearLine
 .text.LCD_Clear
                0x00002120       0x64 Debug/stm3210c_eval_lcd.o
                0x00002120                LCD_Clear
 .text.LCD_SetCursor
                0x00002184       0x30 Debug/stm3210c_eval_lcd.o
                0x00002184                LCD_SetCursor
 .text.LCD_DrawChar
                0x000021b4       0xd4 Debug/stm3210c_eval_lcd.o
                0x000021b4                LCD_DrawChar
 .text.LCD_DisplayChar
                0x00002288       0x4c Debug/stm3210c_eval_lcd.o
                0x00002288                LCD_DisplayChar
 .text.LCD_DisplayStringLine
                0x000022d4       0x70 Debug/stm3210c_eval_lcd.o
                0x000022d4                LCD_DisplayStringLine
 .text.LCD_SetDisplayWindow
                0x00002344       0x9c Debug/stm3210c_eval_lcd.o
                0x00002344                LCD_SetDisplayWindow
 .text.LCD_WindowModeDisable
                0x000023e0       0x28 Debug/stm3210c_eval_lcd.o
                0x000023e0                LCD_WindowModeDisable
 .text.LCD_DrawLine
                0x00002408       0xb0 Debug/stm3210c_eval_lcd.o
                0x00002408                LCD_DrawLine
 .text.LCD_DrawRect
                0x000024b8       0x7c Debug/stm3210c_eval_lcd.o
                0x000024b8                LCD_DrawRect
 .text.LCD_DrawCircle
                0x00002534      0x1fc Debug/stm3210c_eval_lcd.o
                0x00002534                LCD_DrawCircle
 .text.LCD_DrawMonoPict
                0x00002730       0xb4 Debug/stm3210c_eval_lcd.o
                0x00002730                LCD_DrawMonoPict
 .text.LCD_nCS_StartByte
                0x000027e4       0x4c Debug/stm3210c_eval_lcd.o
                0x000027e4                LCD_nCS_StartByte
 .text.LCD_WriteRegIndex
                0x00002830       0x7c Debug/stm3210c_eval_lcd.o
                0x00002830                LCD_WriteRegIndex
 .text.LCD_ReadReg
                0x000028ac      0x1b8 Debug/stm3210c_eval_lcd.o
                0x000028ac                LCD_ReadReg
 .text.LCD_WriteRAM_Prepare
                0x00002a64       0x18 Debug/stm3210c_eval_lcd.o
                0x00002a64                LCD_WriteRAM_Prepare
 .text.LCD_WriteRAMWord
                0x00002a7c       0x34 Debug/stm3210c_eval_lcd.o
                0x00002a7c                LCD_WriteRAMWord
 .text.LCD_WriteReg
                0x00002ab0       0x90 Debug/stm3210c_eval_lcd.o
                0x00002ab0                LCD_WriteReg
 .text.LCD_WriteRAM
                0x00002b40       0x68 Debug/stm3210c_eval_lcd.o
                0x00002b40                LCD_WriteRAM
 .text.LCD_PowerOn
                0x00002ba8       0xa0 Debug/stm3210c_eval_lcd.o
                0x00002ba8                LCD_PowerOn
 .text.LCD_DisplayOn
                0x00002c48       0x14 Debug/stm3210c_eval_lcd.o
                0x00002c48                LCD_DisplayOn
 .text.LCD_DisplayOff
                0x00002c5c       0x14 Debug/stm3210c_eval_lcd.o
                0x00002c5c                LCD_DisplayOff
 .text.LCD_CtrlLinesConfig
                0x00002c70       0x40 Debug/stm3210c_eval_lcd.o
                0x00002c70                LCD_CtrlLinesConfig
 .text.LCD_CtrlLinesWrite
                0x00002cb0       0x28 Debug/stm3210c_eval_lcd.o
                0x00002cb0                LCD_CtrlLinesWrite
 .text.LCD_SPIConfig
                0x00002cd8       0xb8 Debug/stm3210c_eval_lcd.o
                0x00002cd8                LCD_SPIConfig
 .text          0x00002d90        0x0 Debug/drvTask.o
 .text.__enable_irq
                0x00002d90        0xc Debug/drvTask.o
 .text.__disable_irq
                0x00002d9c        0xc Debug/drvTask.o
 .text.__enable_fault_irq
                0x00002da8        0xc Debug/drvTask.o
 .text.__disable_fault_irq
                0x00002db4        0xc Debug/drvTask.o
 .text.__NOP    0x00002dc0        0xc Debug/drvTask.o
 .text.__WFI    0x00002dcc        0xc Debug/drvTask.o
 .text.__WFE    0x00002dd8        0xc Debug/drvTask.o
 .text.__SEV    0x00002de4        0xc Debug/drvTask.o
 .text.__ISB    0x00002df0       0x10 Debug/drvTask.o
 .text.__DSB    0x00002e00       0x10 Debug/drvTask.o
 .text.__DMB    0x00002e10       0x10 Debug/drvTask.o
 .text.__CLREX  0x00002e20       0x10 Debug/drvTask.o
 .text.NVIC_SetPriorityGrouping
                0x00002e30       0x58 Debug/drvTask.o
 .text.NVIC_GetPriorityGrouping
                0x00002e88       0x20 Debug/drvTask.o
 .text.NVIC_EnableIRQ
                0x00002ea8       0x38 Debug/drvTask.o
 .text.NVIC_DisableIRQ
                0x00002ee0       0x3c Debug/drvTask.o
 .text.NVIC_GetPendingIRQ
                0x00002f1c       0x48 Debug/drvTask.o
 .text.NVIC_SetPendingIRQ
                0x00002f64       0x3c Debug/drvTask.o
 .text.NVIC_ClearPendingIRQ
                0x00002fa0       0x3c Debug/drvTask.o
 .text.NVIC_GetActive
                0x00002fdc       0x48 Debug/drvTask.o
 .text.NVIC_SetPriority
                0x00003024       0x5c Debug/drvTask.o
 .text.NVIC_GetPriority
                0x00003080       0x58 Debug/drvTask.o
 .text.NVIC_EncodePriority
                0x000030d8       0x7c Debug/drvTask.o
 .text.NVIC_DecodePriority
                0x00003154       0x80 Debug/drvTask.o
 .text.SysTick_Config
                0x000031d4       0x64 Debug/drvTask.o
 .text.NVIC_SystemReset
                0x00003238       0x30 Debug/drvTask.o
 .text.ITM_SendChar
                0x00003268       0x6c Debug/drvTask.o
 .text.EPL_OBD_INIT_RAM_NAME
                0x000032d4       0x54 Debug/drvTask.o
                0x000032d4                EPL_OBD_INIT_RAM_NAME
 .text.AppCbEvent
                0x00003328      0x294 Debug/drvTask.o
                0x00003328                AppCbEvent
 .text.AppCbSync
                0x000035bc       0x8c Debug/drvTask.o
                0x000035bc                AppCbSync
 .text.variablesMapping
                0x00003648       0xc4 Debug/drvTask.o
                0x00003648                variablesMapping
 .text.drvInitTask
                0x0000370c      0x268 Debug/drvTask.o
                0x0000370c                drvInitTask
 .text.drvStartTask
                0x00003974       0x4c Debug/drvTask.o
                0x00003974                drvStartTask
 .text.MyCallback
                0x000039c0       0x14 Debug/drvTask.o
                0x000039c0                MyCallback
 .text.MyCallback2
                0x000039d4       0x14 Debug/drvTask.o
                0x000039d4                MyCallback2
 .text.drvTaskFunc
                0x000039e8       0x9c Debug/drvTask.o
                0x000039e8                drvTaskFunc
 .text.ledToggle
                0x00003a84       0x48 Debug/drvTask.o
                0x00003a84                ledToggle
 .text.ledToggleFromISR
                0x00003acc       0x48 Debug/drvTask.o
                0x00003acc                ledToggleFromISR
 .text.ledToggle3FromISR
                0x00003b14       0x48 Debug/drvTask.o
                0x00003b14                ledToggle3FromISR
 .text.ledToggle2
                0x00003b5c       0x50 Debug/drvTask.o
                0x00003b5c                ledToggle2
 .text.ledToggle3
                0x00003bac       0x50 Debug/drvTask.o
                0x00003bac                ledToggle3
 .text.frame_received_handler
                0x00003bfc       0x18 Debug/drvTask.o
                0x00003bfc                frame_received_handler
 .text.frame_transmitted_handler
                0x00003c14       0x30 Debug/drvTask.o
                0x00003c14                frame_transmitted_handler
 .text.timer1_handler
                0x00003c44       0x68 Debug/drvTask.o
                0x00003c44                timer1_handler
 .text.timer2_handler
                0x00003cac       0x6c Debug/drvTask.o
                0x00003cac                timer2_handler
 .text.processCommand
                0x00003d18      0x124 Debug/drvTask.o
                0x00003d18                processCommand
 .text.TaskLocalObjectReader
                0x00003e3c       0x68 Debug/drvTask.o
                0x00003e3c                TaskLocalObjectReader
 .text          0x00003ea4        0x0 Debug/debugging.o
 .text.strrev   0x00003ea4       0x8c Debug/debugging.o
                0x00003ea4                strrev
 .text.itochar  0x00003f30       0x70 Debug/debugging.o
                0x00003f30                itochar
 .text          0x00003fa0        0x0 Debug/LedHandler.o
 .text.__enable_irq
                0x00003fa0        0xc Debug/LedHandler.o
 .text.__disable_irq
                0x00003fac        0xc Debug/LedHandler.o
 .text.__enable_fault_irq
                0x00003fb8        0xc Debug/LedHandler.o
 .text.__disable_fault_irq
                0x00003fc4        0xc Debug/LedHandler.o
 .text.__NOP    0x00003fd0        0xc Debug/LedHandler.o
 .text.__WFI    0x00003fdc        0xc Debug/LedHandler.o
 .text.__WFE    0x00003fe8        0xc Debug/LedHandler.o
 .text.__SEV    0x00003ff4        0xc Debug/LedHandler.o
 .text.__ISB    0x00004000       0x10 Debug/LedHandler.o
 .text.__DSB    0x00004010       0x10 Debug/LedHandler.o
 .text.__DMB    0x00004020       0x10 Debug/LedHandler.o
 .text.__CLREX  0x00004030       0x10 Debug/LedHandler.o
 .text.NVIC_SetPriorityGrouping
                0x00004040       0x58 Debug/LedHandler.o
 .text.NVIC_GetPriorityGrouping
                0x00004098       0x20 Debug/LedHandler.o
 .text.NVIC_EnableIRQ
                0x000040b8       0x38 Debug/LedHandler.o
 .text.NVIC_DisableIRQ
                0x000040f0       0x3c Debug/LedHandler.o
 .text.NVIC_GetPendingIRQ
                0x0000412c       0x48 Debug/LedHandler.o
 .text.NVIC_SetPendingIRQ
                0x00004174       0x3c Debug/LedHandler.o
 .text.NVIC_ClearPendingIRQ
                0x000041b0       0x3c Debug/LedHandler.o
 .text.NVIC_GetActive
                0x000041ec       0x48 Debug/LedHandler.o
 .text.NVIC_SetPriority
                0x00004234       0x5c Debug/LedHandler.o
 .text.NVIC_GetPriority
                0x00004290       0x58 Debug/LedHandler.o
 .text.NVIC_EncodePriority
                0x000042e8       0x7c Debug/LedHandler.o
 .text.NVIC_DecodePriority
                0x00004364       0x80 Debug/LedHandler.o
 .text.SysTick_Config
                0x000043e4       0x64 Debug/LedHandler.o
 .text.NVIC_SystemReset
                0x00004448       0x30 Debug/LedHandler.o
 .text.ITM_SendChar
                0x00004478       0x6c Debug/LedHandler.o
 .text.vLedHandlerInitialise
                0x000044e4       0xd8 Debug/LedHandler.o
                0x000044e4                vLedHandlerInitialise
 .text.vLedHandlerSetLED
                0x000045bc       0x7c Debug/LedHandler.o
                0x000045bc                vLedHandlerSetLED
 .text.vLedHandlerSetLEDFromISR
                0x00004638       0x74 Debug/LedHandler.o
                0x00004638                vLedHandlerSetLEDFromISR
 .text.xGetLEDState
                0x000046ac       0x2c Debug/LedHandler.o
                0x000046ac                xGetLEDState
 .text          0x000046d8        0x0 Debug/PushButton.o
 .text.__enable_irq
                0x000046d8        0xc Debug/PushButton.o
 .text.__disable_irq
                0x000046e4        0xc Debug/PushButton.o
 .text.__enable_fault_irq
                0x000046f0        0xc Debug/PushButton.o
 .text.__disable_fault_irq
                0x000046fc        0xc Debug/PushButton.o
 .text.__NOP    0x00004708        0xc Debug/PushButton.o
 .text.__WFI    0x00004714        0xc Debug/PushButton.o
 .text.__WFE    0x00004720        0xc Debug/PushButton.o
 .text.__SEV    0x0000472c        0xc Debug/PushButton.o
 .text.__ISB    0x00004738       0x10 Debug/PushButton.o
 .text.__DSB    0x00004748       0x10 Debug/PushButton.o
 .text.__DMB    0x00004758       0x10 Debug/PushButton.o
 .text.__CLREX  0x00004768       0x10 Debug/PushButton.o
 .text.NVIC_SetPriorityGrouping
                0x00004778       0x58 Debug/PushButton.o
 .text.NVIC_GetPriorityGrouping
                0x000047d0       0x20 Debug/PushButton.o
 .text.NVIC_EnableIRQ
                0x000047f0       0x38 Debug/PushButton.o
 .text.NVIC_DisableIRQ
                0x00004828       0x3c Debug/PushButton.o
 .text.NVIC_GetPendingIRQ
                0x00004864       0x48 Debug/PushButton.o
 .text.NVIC_SetPendingIRQ
                0x000048ac       0x3c Debug/PushButton.o
 .text.NVIC_ClearPendingIRQ
                0x000048e8       0x3c Debug/PushButton.o
 .text.NVIC_GetActive
                0x00004924       0x48 Debug/PushButton.o
 .text.NVIC_SetPriority
                0x0000496c       0x5c Debug/PushButton.o
 .text.NVIC_GetPriority
                0x000049c8       0x58 Debug/PushButton.o
 .text.NVIC_EncodePriority
                0x00004a20       0x7c Debug/PushButton.o
 .text.NVIC_DecodePriority
                0x00004a9c       0x80 Debug/PushButton.o
 .text.SysTick_Config
                0x00004b1c       0x64 Debug/PushButton.o
 .text.NVIC_SystemReset
                0x00004b80       0x30 Debug/PushButton.o
 .text.ITM_SendChar
                0x00004bb0       0x6c Debug/PushButton.o
 .text.PushButtonInit
                0x00004c1c       0x60 Debug/PushButton.o
                0x00004c1c                PushButtonInit
 .text.PushButtonGetState
                0x00004c7c       0x3c Debug/PushButton.o
                0x00004c7c                PushButtonGetState
 .text          0x00004cb8        0x0 Debug/core_cm3.o
 .text.__get_PSP
                0x00004cb8       0x10 Debug/core_cm3.o
                0x00004cb8                __get_PSP
 .text.__set_PSP
                0x00004cc8        0x8 Debug/core_cm3.o
                0x00004cc8                __set_PSP
 .text.__get_MSP
                0x00004cd0       0x10 Debug/core_cm3.o
                0x00004cd0                __get_MSP
 .text.__set_MSP
                0x00004ce0        0x8 Debug/core_cm3.o
                0x00004ce0                __set_MSP
 .text.__get_BASEPRI
                0x00004ce8       0x20 Debug/core_cm3.o
                0x00004ce8                __get_BASEPRI
 .text.__set_BASEPRI
                0x00004d08       0x18 Debug/core_cm3.o
                0x00004d08                __set_BASEPRI
 .text.__get_PRIMASK
                0x00004d20       0x20 Debug/core_cm3.o
                0x00004d20                __get_PRIMASK
 .text.__set_PRIMASK
                0x00004d40       0x18 Debug/core_cm3.o
                0x00004d40                __set_PRIMASK
 .text.__get_FAULTMASK
                0x00004d58       0x20 Debug/core_cm3.o
                0x00004d58                __get_FAULTMASK
 .text.__set_FAULTMASK
                0x00004d78       0x18 Debug/core_cm3.o
                0x00004d78                __set_FAULTMASK
 .text.__REV    0x00004d90       0x24 Debug/core_cm3.o
                0x00004d90                __REV
 .text.__REV16  0x00004db4       0x24 Debug/core_cm3.o
                0x00004db4                __REV16
 .text.__REVSH  0x00004dd8       0x24 Debug/core_cm3.o
                0x00004dd8                __REVSH
 .text.__RBIT   0x00004dfc       0x24 Debug/core_cm3.o
                0x00004dfc                __RBIT
 .text.__LDREXB
                0x00004e20       0x24 Debug/core_cm3.o
                0x00004e20                __LDREXB
 .text.__LDREXH
                0x00004e44       0x24 Debug/core_cm3.o
                0x00004e44                __LDREXH
 .text.__LDREXW
                0x00004e68       0x24 Debug/core_cm3.o
                0x00004e68                __LDREXW
 .text.__STREXB
                0x00004e8c       0x2c Debug/core_cm3.o
                0x00004e8c                __STREXB
 .text.__STREXH
                0x00004eb8       0x2c Debug/core_cm3.o
                0x00004eb8                __STREXH
 .text.__STREXW
                0x00004ee4       0x28 Debug/core_cm3.o
                0x00004ee4                __STREXW
 .text.__get_CONTROL
                0x00004f0c       0x20 Debug/core_cm3.o
                0x00004f0c                __get_CONTROL
 .text.__set_CONTROL
                0x00004f2c       0x18 Debug/core_cm3.o
                0x00004f2c                __set_CONTROL
 .text          0x00004f44        0x0 Debug/system_stm32f10x.o
 .text.__enable_irq
                0x00004f44        0xc Debug/system_stm32f10x.o
 .text.__disable_irq
                0x00004f50        0xc Debug/system_stm32f10x.o
 .text.__enable_fault_irq
                0x00004f5c        0xc Debug/system_stm32f10x.o
 .text.__disable_fault_irq
                0x00004f68        0xc Debug/system_stm32f10x.o
 .text.__NOP    0x00004f74        0xc Debug/system_stm32f10x.o
 .text.__WFI    0x00004f80        0xc Debug/system_stm32f10x.o
 .text.__WFE    0x00004f8c        0xc Debug/system_stm32f10x.o
 .text.__SEV    0x00004f98        0xc Debug/system_stm32f10x.o
 .text.__ISB    0x00004fa4       0x10 Debug/system_stm32f10x.o
 .text.__DSB    0x00004fb4       0x10 Debug/system_stm32f10x.o
 .text.__DMB    0x00004fc4       0x10 Debug/system_stm32f10x.o
 .text.__CLREX  0x00004fd4       0x10 Debug/system_stm32f10x.o
 .text.NVIC_SetPriorityGrouping
                0x00004fe4       0x58 Debug/system_stm32f10x.o
 .text.NVIC_GetPriorityGrouping
                0x0000503c       0x20 Debug/system_stm32f10x.o
 .text.NVIC_EnableIRQ
                0x0000505c       0x38 Debug/system_stm32f10x.o
 .text.NVIC_DisableIRQ
                0x00005094       0x3c Debug/system_stm32f10x.o
 .text.NVIC_GetPendingIRQ
                0x000050d0       0x48 Debug/system_stm32f10x.o
 .text.NVIC_SetPendingIRQ
                0x00005118       0x3c Debug/system_stm32f10x.o
 .text.NVIC_ClearPendingIRQ
                0x00005154       0x3c Debug/system_stm32f10x.o
 .text.NVIC_GetActive
                0x00005190       0x48 Debug/system_stm32f10x.o
 .text.NVIC_SetPriority
                0x000051d8       0x5c Debug/system_stm32f10x.o
 .text.NVIC_GetPriority
                0x00005234       0x58 Debug/system_stm32f10x.o
 .text.NVIC_EncodePriority
                0x0000528c       0x7c Debug/system_stm32f10x.o
 .text.NVIC_DecodePriority
                0x00005308       0x80 Debug/system_stm32f10x.o
 .text.SysTick_Config
                0x00005388       0x64 Debug/system_stm32f10x.o
 .text.NVIC_SystemReset
                0x000053ec       0x30 Debug/system_stm32f10x.o
 .text.ITM_SendChar
                0x0000541c       0x6c Debug/system_stm32f10x.o
 .text.SystemInit
                0x00005488       0xc4 Debug/system_stm32f10x.o
                0x00005488                SystemInit
 .text.SetSysClock
                0x0000554c        0xc Debug/system_stm32f10x.o
 .text.SetSysClockTo72
                0x00005558      0x210 Debug/system_stm32f10x.o
 .text          0x00005768        0x0 Debug/misc.o
 .text.__enable_irq
                0x00005768        0xc Debug/misc.o
 .text.__disable_irq
                0x00005774        0xc Debug/misc.o
 .text.__enable_fault_irq
                0x00005780        0xc Debug/misc.o
 .text.__disable_fault_irq
                0x0000578c        0xc Debug/misc.o
 .text.__NOP    0x00005798        0xc Debug/misc.o
 .text.__WFI    0x000057a4        0xc Debug/misc.o
 .text.__WFE    0x000057b0        0xc Debug/misc.o
 .text.__SEV    0x000057bc        0xc Debug/misc.o
 .text.__ISB    0x000057c8       0x10 Debug/misc.o
 .text.__DSB    0x000057d8       0x10 Debug/misc.o
 .text.__DMB    0x000057e8       0x10 Debug/misc.o
 .text.__CLREX  0x000057f8       0x10 Debug/misc.o
 .text.NVIC_SetPriorityGrouping
                0x00005808       0x58 Debug/misc.o
 .text.NVIC_GetPriorityGrouping
                0x00005860       0x20 Debug/misc.o
 .text.NVIC_EnableIRQ
                0x00005880       0x38 Debug/misc.o
 .text.NVIC_DisableIRQ
                0x000058b8       0x3c Debug/misc.o
 .text.NVIC_GetPendingIRQ
                0x000058f4       0x48 Debug/misc.o
 .text.NVIC_SetPendingIRQ
                0x0000593c       0x3c Debug/misc.o
 .text.NVIC_ClearPendingIRQ
                0x00005978       0x3c Debug/misc.o
 .text.NVIC_GetActive
                0x000059b4       0x48 Debug/misc.o
 .text.NVIC_SetPriority
                0x000059fc       0x5c Debug/misc.o
 .text.NVIC_GetPriority
                0x00005a58       0x58 Debug/misc.o
 .text.NVIC_EncodePriority
                0x00005ab0       0x7c Debug/misc.o
 .text.NVIC_DecodePriority
                0x00005b2c       0x80 Debug/misc.o
 .text.SysTick_Config
                0x00005bac       0x64 Debug/misc.o
 .text.NVIC_SystemReset
                0x00005c10       0x30 Debug/misc.o
 .text.ITM_SendChar
                0x00005c40       0x6c Debug/misc.o
 .text.NVIC_PriorityGroupConfig
                0x00005cac       0x28 Debug/misc.o
                0x00005cac                NVIC_PriorityGroupConfig
 .text.NVIC_Init
                0x00005cd4       0xec Debug/misc.o
                0x00005cd4                NVIC_Init
 .text.NVIC_SetVectorTable
                0x00005dc0       0x30 Debug/misc.o
                0x00005dc0                NVIC_SetVectorTable
 .text.NVIC_SystemLPConfig
                0x00005df0       0x58 Debug/misc.o
                0x00005df0                NVIC_SystemLPConfig
 .text.SysTick_CLKSourceConfig
                0x00005e48       0x4c Debug/misc.o
                0x00005e48                SysTick_CLKSourceConfig
 .text          0x00005e94        0x0 Debug/stm32f10x_rcc.o
 .text.__enable_irq
                0x00005e94        0xc Debug/stm32f10x_rcc.o
 .text.__disable_irq
                0x00005ea0        0xc Debug/stm32f10x_rcc.o
 .text.__enable_fault_irq
                0x00005eac        0xc Debug/stm32f10x_rcc.o
 .text.__disable_fault_irq
                0x00005eb8        0xc Debug/stm32f10x_rcc.o
 .text.__NOP    0x00005ec4        0xc Debug/stm32f10x_rcc.o
 .text.__WFI    0x00005ed0        0xc Debug/stm32f10x_rcc.o
 .text.__WFE    0x00005edc        0xc Debug/stm32f10x_rcc.o
 .text.__SEV    0x00005ee8        0xc Debug/stm32f10x_rcc.o
 .text.__ISB    0x00005ef4       0x10 Debug/stm32f10x_rcc.o
 .text.__DSB    0x00005f04       0x10 Debug/stm32f10x_rcc.o
 .text.__DMB    0x00005f14       0x10 Debug/stm32f10x_rcc.o
 .text.__CLREX  0x00005f24       0x10 Debug/stm32f10x_rcc.o
 .text.NVIC_SetPriorityGrouping
                0x00005f34       0x58 Debug/stm32f10x_rcc.o
 .text.NVIC_GetPriorityGrouping
                0x00005f8c       0x20 Debug/stm32f10x_rcc.o
 .text.NVIC_EnableIRQ
                0x00005fac       0x38 Debug/stm32f10x_rcc.o
 .text.NVIC_DisableIRQ
                0x00005fe4       0x3c Debug/stm32f10x_rcc.o
 .text.NVIC_GetPendingIRQ
                0x00006020       0x48 Debug/stm32f10x_rcc.o
 .text.NVIC_SetPendingIRQ
                0x00006068       0x3c Debug/stm32f10x_rcc.o
 .text.NVIC_ClearPendingIRQ
                0x000060a4       0x3c Debug/stm32f10x_rcc.o
 .text.NVIC_GetActive
                0x000060e0       0x48 Debug/stm32f10x_rcc.o
 .text.NVIC_SetPriority
                0x00006128       0x5c Debug/stm32f10x_rcc.o
 .text.NVIC_GetPriority
                0x00006184       0x58 Debug/stm32f10x_rcc.o
 .text.NVIC_EncodePriority
                0x000061dc       0x7c Debug/stm32f10x_rcc.o
 .text.NVIC_DecodePriority
                0x00006258       0x80 Debug/stm32f10x_rcc.o
 .text.SysTick_Config
                0x000062d8       0x64 Debug/stm32f10x_rcc.o
 .text.NVIC_SystemReset
                0x0000633c       0x30 Debug/stm32f10x_rcc.o
 .text.ITM_SendChar
                0x0000636c       0x6c Debug/stm32f10x_rcc.o
 .text.RCC_DeInit
                0x000063d8       0xc4 Debug/stm32f10x_rcc.o
                0x000063d8                RCC_DeInit
 .text.RCC_HSEConfig
                0x0000649c       0x84 Debug/stm32f10x_rcc.o
                0x0000649c                RCC_HSEConfig
 .text.RCC_WaitForHSEStartUp
                0x00006520       0x64 Debug/stm32f10x_rcc.o
                0x00006520                RCC_WaitForHSEStartUp
 .text.RCC_AdjustHSICalibrationValue
                0x00006584       0x48 Debug/stm32f10x_rcc.o
                0x00006584                RCC_AdjustHSICalibrationValue
 .text.RCC_HSICmd
                0x000065cc       0x20 Debug/stm32f10x_rcc.o
                0x000065cc                RCC_HSICmd
 .text.RCC_PLLConfig
                0x000065ec       0x4c Debug/stm32f10x_rcc.o
                0x000065ec                RCC_PLLConfig
 .text.RCC_PLLCmd
                0x00006638       0x20 Debug/stm32f10x_rcc.o
                0x00006638                RCC_PLLCmd
 .text.RCC_PREDIV1Config
                0x00006658       0x50 Debug/stm32f10x_rcc.o
                0x00006658                RCC_PREDIV1Config
 .text.RCC_PREDIV2Config
                0x000066a8       0x44 Debug/stm32f10x_rcc.o
                0x000066a8                RCC_PREDIV2Config
 .text.RCC_PLL2Config
                0x000066ec       0x44 Debug/stm32f10x_rcc.o
                0x000066ec                RCC_PLL2Config
 .text.RCC_PLL2Cmd
                0x00006730       0x20 Debug/stm32f10x_rcc.o
                0x00006730                RCC_PLL2Cmd
 .text.RCC_PLL3Config
                0x00006750       0x44 Debug/stm32f10x_rcc.o
                0x00006750                RCC_PLL3Config
 .text.RCC_PLL3Cmd
                0x00006794       0x20 Debug/stm32f10x_rcc.o
                0x00006794                RCC_PLL3Cmd
 .text.RCC_SYSCLKConfig
                0x000067b4       0x44 Debug/stm32f10x_rcc.o
                0x000067b4                RCC_SYSCLKConfig
 .text.RCC_GetSYSCLKSource
                0x000067f8       0x1c Debug/stm32f10x_rcc.o
                0x000067f8                RCC_GetSYSCLKSource
 .text.RCC_HCLKConfig
                0x00006814       0x44 Debug/stm32f10x_rcc.o
                0x00006814                RCC_HCLKConfig
 .text.RCC_PCLK1Config
                0x00006858       0x44 Debug/stm32f10x_rcc.o
                0x00006858                RCC_PCLK1Config
 .text.RCC_PCLK2Config
                0x0000689c       0x48 Debug/stm32f10x_rcc.o
                0x0000689c                RCC_PCLK2Config
 .text.RCC_ITConfig
                0x000068e4       0x64 Debug/stm32f10x_rcc.o
                0x000068e4                RCC_ITConfig
 .text.RCC_OTGFSCLKConfig
                0x00006948       0x20 Debug/stm32f10x_rcc.o
                0x00006948                RCC_OTGFSCLKConfig
 .text.RCC_ADCCLKConfig
                0x00006968       0x44 Debug/stm32f10x_rcc.o
                0x00006968                RCC_ADCCLKConfig
 .text.RCC_I2S2CLKConfig
                0x000069ac       0x20 Debug/stm32f10x_rcc.o
                0x000069ac                RCC_I2S2CLKConfig
 .text.RCC_I2S3CLKConfig
                0x000069cc       0x20 Debug/stm32f10x_rcc.o
                0x000069cc                RCC_I2S3CLKConfig
 .text.RCC_LSEConfig
                0x000069ec       0x5c Debug/stm32f10x_rcc.o
                0x000069ec                RCC_LSEConfig
 .text.RCC_LSICmd
                0x00006a48       0x20 Debug/stm32f10x_rcc.o
                0x00006a48                RCC_LSICmd
 .text.RCC_RTCCLKConfig
                0x00006a68       0x2c Debug/stm32f10x_rcc.o
                0x00006a68                RCC_RTCCLKConfig
 .text.RCC_RTCCLKCmd
                0x00006a94       0x20 Debug/stm32f10x_rcc.o
                0x00006a94                RCC_RTCCLKCmd
 .text.RCC_GetClocksFreq
                0x00006ab4      0x254 Debug/stm32f10x_rcc.o
                0x00006ab4                RCC_GetClocksFreq
 .text.RCC_AHBPeriphClockCmd
                0x00006d08       0x58 Debug/stm32f10x_rcc.o
                0x00006d08                RCC_AHBPeriphClockCmd
 .text.RCC_APB2PeriphClockCmd
                0x00006d60       0x58 Debug/stm32f10x_rcc.o
                0x00006d60                RCC_APB2PeriphClockCmd
 .text.RCC_APB1PeriphClockCmd
                0x00006db8       0x58 Debug/stm32f10x_rcc.o
                0x00006db8                RCC_APB1PeriphClockCmd
 .text.RCC_AHBPeriphResetCmd
                0x00006e10       0x58 Debug/stm32f10x_rcc.o
                0x00006e10                RCC_AHBPeriphResetCmd
 .text.RCC_APB2PeriphResetCmd
                0x00006e68       0x58 Debug/stm32f10x_rcc.o
                0x00006e68                RCC_APB2PeriphResetCmd
 .text.RCC_APB1PeriphResetCmd
                0x00006ec0       0x58 Debug/stm32f10x_rcc.o
                0x00006ec0                RCC_APB1PeriphResetCmd
 .text.RCC_BackupResetCmd
                0x00006f18       0x20 Debug/stm32f10x_rcc.o
                0x00006f18                RCC_BackupResetCmd
 .text.RCC_ClockSecuritySystemCmd
                0x00006f38       0x20 Debug/stm32f10x_rcc.o
                0x00006f38                RCC_ClockSecuritySystemCmd
 .text.RCC_MCOConfig
                0x00006f58       0x20 Debug/stm32f10x_rcc.o
                0x00006f58                RCC_MCOConfig
 .text.RCC_GetFlagStatus
                0x00006f78       0x90 Debug/stm32f10x_rcc.o
                0x00006f78                RCC_GetFlagStatus
 .text.RCC_ClearFlag
                0x00007008       0x24 Debug/stm32f10x_rcc.o
                0x00007008                RCC_ClearFlag
 .text.RCC_GetITStatus
                0x0000702c       0x40 Debug/stm32f10x_rcc.o
                0x0000702c                RCC_GetITStatus
 .text.RCC_ClearITPendingBit
                0x0000706c       0x20 Debug/stm32f10x_rcc.o
                0x0000706c                RCC_ClearITPendingBit
 .text          0x0000708c        0x0 Debug/stm32f10x_flash.o
 .text.__enable_irq
                0x0000708c        0xc Debug/stm32f10x_flash.o
 .text.__disable_irq
                0x00007098        0xc Debug/stm32f10x_flash.o
 .text.__enable_fault_irq
                0x000070a4        0xc Debug/stm32f10x_flash.o
 .text.__disable_fault_irq
                0x000070b0        0xc Debug/stm32f10x_flash.o
 .text.__NOP    0x000070bc        0xc Debug/stm32f10x_flash.o
 .text.__WFI    0x000070c8        0xc Debug/stm32f10x_flash.o
 .text.__WFE    0x000070d4        0xc Debug/stm32f10x_flash.o
 .text.__SEV    0x000070e0        0xc Debug/stm32f10x_flash.o
 .text.__ISB    0x000070ec       0x10 Debug/stm32f10x_flash.o
 .text.__DSB    0x000070fc       0x10 Debug/stm32f10x_flash.o
 .text.__DMB    0x0000710c       0x10 Debug/stm32f10x_flash.o
 .text.__CLREX  0x0000711c       0x10 Debug/stm32f10x_flash.o
 .text.NVIC_SetPriorityGrouping
                0x0000712c       0x58 Debug/stm32f10x_flash.o
 .text.NVIC_GetPriorityGrouping
                0x00007184       0x20 Debug/stm32f10x_flash.o
 .text.NVIC_EnableIRQ
                0x000071a4       0x38 Debug/stm32f10x_flash.o
 .text.NVIC_DisableIRQ
                0x000071dc       0x3c Debug/stm32f10x_flash.o
 .text.NVIC_GetPendingIRQ
                0x00007218       0x48 Debug/stm32f10x_flash.o
 .text.NVIC_SetPendingIRQ
                0x00007260       0x3c Debug/stm32f10x_flash.o
 .text.NVIC_ClearPendingIRQ
                0x0000729c       0x3c Debug/stm32f10x_flash.o
 .text.NVIC_GetActive
                0x000072d8       0x48 Debug/stm32f10x_flash.o
 .text.NVIC_SetPriority
                0x00007320       0x5c Debug/stm32f10x_flash.o
 .text.NVIC_GetPriority
                0x0000737c       0x58 Debug/stm32f10x_flash.o
 .text.NVIC_EncodePriority
                0x000073d4       0x7c Debug/stm32f10x_flash.o
 .text.NVIC_DecodePriority
                0x00007450       0x80 Debug/stm32f10x_flash.o
 .text.SysTick_Config
                0x000074d0       0x64 Debug/stm32f10x_flash.o
 .text.NVIC_SystemReset
                0x00007534       0x30 Debug/stm32f10x_flash.o
 .text.ITM_SendChar
                0x00007564       0x6c Debug/stm32f10x_flash.o
 .text.FLASH_SetLatency
                0x000075d0       0x44 Debug/stm32f10x_flash.o
                0x000075d0                FLASH_SetLatency
 .text.FLASH_HalfCycleAccessCmd
                0x00007614       0x44 Debug/stm32f10x_flash.o
                0x00007614                FLASH_HalfCycleAccessCmd
 .text.FLASH_PrefetchBufferCmd
                0x00007658       0x44 Debug/stm32f10x_flash.o
                0x00007658                FLASH_PrefetchBufferCmd
 .text.FLASH_Unlock
                0x0000769c       0x30 Debug/stm32f10x_flash.o
                0x0000769c                FLASH_Unlock
 .text.FLASH_Lock
                0x000076cc       0x24 Debug/stm32f10x_flash.o
                0x000076cc                FLASH_Lock
 .text.FLASH_ErasePage
                0x000076f0       0x9c Debug/stm32f10x_flash.o
                0x000076f0                FLASH_ErasePage
 .text.FLASH_EraseAllPages
                0x0000778c       0x8c Debug/stm32f10x_flash.o
                0x0000778c                FLASH_EraseAllPages
 .text.FLASH_EraseOptionBytes
                0x00007818      0x138 Debug/stm32f10x_flash.o
                0x00007818                FLASH_EraseOptionBytes
 .text.FLASH_ProgramWord
                0x00007950       0xd8 Debug/stm32f10x_flash.o
                0x00007950                FLASH_ProgramWord
 .text.FLASH_ProgramHalfWord
                0x00007a28       0x80 Debug/stm32f10x_flash.o
                0x00007a28                FLASH_ProgramHalfWord
 .text.FLASH_ProgramOptionByteData
                0x00007aa8       0xa4 Debug/stm32f10x_flash.o
                0x00007aa8                FLASH_ProgramOptionByteData
 .text.FLASH_EnableWriteProtection
                0x00007b4c      0x164 Debug/stm32f10x_flash.o
                0x00007b4c                FLASH_EnableWriteProtection
 .text.FLASH_ReadOutProtection
                0x00007cb0      0x150 Debug/stm32f10x_flash.o
                0x00007cb0                FLASH_ReadOutProtection
 .text.FLASH_UserOptionByteConfig
                0x00007e00       0xc8 Debug/stm32f10x_flash.o
                0x00007e00                FLASH_UserOptionByteConfig
 .text.FLASH_GetUserOptionByte
                0x00007ec8       0x1c Debug/stm32f10x_flash.o
                0x00007ec8                FLASH_GetUserOptionByte
 .text.FLASH_GetWriteProtectionOptionByte
                0x00007ee4       0x18 Debug/stm32f10x_flash.o
                0x00007ee4                FLASH_GetWriteProtectionOptionByte
 .text.FLASH_GetReadOutProtectionStatus
                0x00007efc       0x3c Debug/stm32f10x_flash.o
                0x00007efc                FLASH_GetReadOutProtectionStatus
 .text.FLASH_GetPrefetchBufferStatus
                0x00007f38       0x3c Debug/stm32f10x_flash.o
                0x00007f38                FLASH_GetPrefetchBufferStatus
 .text.FLASH_ITConfig
                0x00007f74       0x58 Debug/stm32f10x_flash.o
                0x00007f74                FLASH_ITConfig
 .text.FLASH_GetFlagStatus
                0x00007fcc       0x6c Debug/stm32f10x_flash.o
                0x00007fcc                FLASH_GetFlagStatus
 .text.FLASH_ClearFlag
                0x00008038       0x20 Debug/stm32f10x_flash.o
                0x00008038                FLASH_ClearFlag
 .text.FLASH_GetStatus
                0x00008058       0x70 Debug/stm32f10x_flash.o
                0x00008058                FLASH_GetStatus
 .text.FLASH_WaitForLastOperation
                0x000080c8       0x50 Debug/stm32f10x_flash.o
                0x000080c8                FLASH_WaitForLastOperation
 .text.delay    0x00008118       0x2c Debug/stm32f10x_flash.o
 .text          0x00008144        0x0 Debug/stm32f10x_gpio.o
 .text.__enable_irq
                0x00008144        0xc Debug/stm32f10x_gpio.o
 .text.__disable_irq
                0x00008150        0xc Debug/stm32f10x_gpio.o
 .text.__enable_fault_irq
                0x0000815c        0xc Debug/stm32f10x_gpio.o
 .text.__disable_fault_irq
                0x00008168        0xc Debug/stm32f10x_gpio.o
 .text.__NOP    0x00008174        0xc Debug/stm32f10x_gpio.o
 .text.__WFI    0x00008180        0xc Debug/stm32f10x_gpio.o
 .text.__WFE    0x0000818c        0xc Debug/stm32f10x_gpio.o
 .text.__SEV    0x00008198        0xc Debug/stm32f10x_gpio.o
 .text.__ISB    0x000081a4       0x10 Debug/stm32f10x_gpio.o
 .text.__DSB    0x000081b4       0x10 Debug/stm32f10x_gpio.o
 .text.__DMB    0x000081c4       0x10 Debug/stm32f10x_gpio.o
 .text.__CLREX  0x000081d4       0x10 Debug/stm32f10x_gpio.o
 .text.NVIC_SetPriorityGrouping
                0x000081e4       0x58 Debug/stm32f10x_gpio.o
 .text.NVIC_GetPriorityGrouping
                0x0000823c       0x20 Debug/stm32f10x_gpio.o
 .text.NVIC_EnableIRQ
                0x0000825c       0x38 Debug/stm32f10x_gpio.o
 .text.NVIC_DisableIRQ
                0x00008294       0x3c Debug/stm32f10x_gpio.o
 .text.NVIC_GetPendingIRQ
                0x000082d0       0x48 Debug/stm32f10x_gpio.o
 .text.NVIC_SetPendingIRQ
                0x00008318       0x3c Debug/stm32f10x_gpio.o
 .text.NVIC_ClearPendingIRQ
                0x00008354       0x3c Debug/stm32f10x_gpio.o
 .text.NVIC_GetActive
                0x00008390       0x48 Debug/stm32f10x_gpio.o
 .text.NVIC_SetPriority
                0x000083d8       0x5c Debug/stm32f10x_gpio.o
 .text.NVIC_GetPriority
                0x00008434       0x58 Debug/stm32f10x_gpio.o
 .text.NVIC_EncodePriority
                0x0000848c       0x7c Debug/stm32f10x_gpio.o
 .text.NVIC_DecodePriority
                0x00008508       0x80 Debug/stm32f10x_gpio.o
 .text.SysTick_Config
                0x00008588       0x64 Debug/stm32f10x_gpio.o
 .text.NVIC_SystemReset
                0x000085ec       0x30 Debug/stm32f10x_gpio.o
 .text.ITM_SendChar
                0x0000861c       0x6c Debug/stm32f10x_gpio.o
 .text.GPIO_DeInit
                0x00008688      0x128 Debug/stm32f10x_gpio.o
                0x00008688                GPIO_DeInit
 .text.GPIO_AFIODeInit
                0x000087b0       0x20 Debug/stm32f10x_gpio.o
                0x000087b0                GPIO_AFIODeInit
 .text.GPIO_Init
                0x000087d0      0x1c0 Debug/stm32f10x_gpio.o
                0x000087d0                GPIO_Init
 .text.GPIO_StructInit
                0x00008990       0x2c Debug/stm32f10x_gpio.o
                0x00008990                GPIO_StructInit
 .text.GPIO_ReadInputDataBit
                0x000089bc       0x3c Debug/stm32f10x_gpio.o
                0x000089bc                GPIO_ReadInputDataBit
 .text.GPIO_ReadInputData
                0x000089f8       0x1c Debug/stm32f10x_gpio.o
                0x000089f8                GPIO_ReadInputData
 .text.GPIO_ReadOutputDataBit
                0x00008a14       0x3c Debug/stm32f10x_gpio.o
                0x00008a14                GPIO_ReadOutputDataBit
 .text.GPIO_ReadOutputData
                0x00008a50       0x1c Debug/stm32f10x_gpio.o
                0x00008a50                GPIO_ReadOutputData
 .text.GPIO_SetBits
                0x00008a6c       0x1c Debug/stm32f10x_gpio.o
                0x00008a6c                GPIO_SetBits
 .text.GPIO_ResetBits
                0x00008a88       0x1c Debug/stm32f10x_gpio.o
                0x00008a88                GPIO_ResetBits
 .text.GPIO_WriteBit
                0x00008aa4       0x30 Debug/stm32f10x_gpio.o
                0x00008aa4                GPIO_WriteBit
 .text.GPIO_Write
                0x00008ad4       0x1c Debug/stm32f10x_gpio.o
                0x00008ad4                GPIO_Write
 .text.GPIO_PinLockConfig
                0x00008af0       0x44 Debug/stm32f10x_gpio.o
                0x00008af0                GPIO_PinLockConfig
 .text.GPIO_EventOutputConfig
                0x00008b34       0x60 Debug/stm32f10x_gpio.o
                0x00008b34                GPIO_EventOutputConfig
 .text.GPIO_EventOutputCmd
                0x00008b94       0x20 Debug/stm32f10x_gpio.o
                0x00008b94                GPIO_EventOutputCmd
 .text.GPIO_PinRemapConfig
                0x00008bb4       0xfc Debug/stm32f10x_gpio.o
                0x00008bb4                GPIO_PinRemapConfig
 .text.GPIO_EXTILineConfig
                0x00008cb0       0xb8 Debug/stm32f10x_gpio.o
                0x00008cb0                GPIO_EXTILineConfig
 .text.GPIO_ETH_MediaInterfaceConfig
                0x00008d68       0x20 Debug/stm32f10x_gpio.o
                0x00008d68                GPIO_ETH_MediaInterfaceConfig
 .text          0x00008d88        0x0 Debug/stm32f10x_tim.o
 .text.__enable_irq
                0x00008d88        0xc Debug/stm32f10x_tim.o
 .text.__disable_irq
                0x00008d94        0xc Debug/stm32f10x_tim.o
 .text.__enable_fault_irq
                0x00008da0        0xc Debug/stm32f10x_tim.o
 .text.__disable_fault_irq
                0x00008dac        0xc Debug/stm32f10x_tim.o
 .text.__NOP    0x00008db8        0xc Debug/stm32f10x_tim.o
 .text.__WFI    0x00008dc4        0xc Debug/stm32f10x_tim.o
 .text.__WFE    0x00008dd0        0xc Debug/stm32f10x_tim.o
 .text.__SEV    0x00008ddc        0xc Debug/stm32f10x_tim.o
 .text.__ISB    0x00008de8       0x10 Debug/stm32f10x_tim.o
 .text.__DSB    0x00008df8       0x10 Debug/stm32f10x_tim.o
 .text.__DMB    0x00008e08       0x10 Debug/stm32f10x_tim.o
 .text.__CLREX  0x00008e18       0x10 Debug/stm32f10x_tim.o
 .text.NVIC_SetPriorityGrouping
                0x00008e28       0x58 Debug/stm32f10x_tim.o
 .text.NVIC_GetPriorityGrouping
                0x00008e80       0x20 Debug/stm32f10x_tim.o
 .text.NVIC_EnableIRQ
                0x00008ea0       0x38 Debug/stm32f10x_tim.o
 .text.NVIC_DisableIRQ
                0x00008ed8       0x3c Debug/stm32f10x_tim.o
 .text.NVIC_GetPendingIRQ
                0x00008f14       0x48 Debug/stm32f10x_tim.o
 .text.NVIC_SetPendingIRQ
                0x00008f5c       0x3c Debug/stm32f10x_tim.o
 .text.NVIC_ClearPendingIRQ
                0x00008f98       0x3c Debug/stm32f10x_tim.o
 .text.NVIC_GetActive
                0x00008fd4       0x48 Debug/stm32f10x_tim.o
 .text.NVIC_SetPriority
                0x0000901c       0x5c Debug/stm32f10x_tim.o
 .text.NVIC_GetPriority
                0x00009078       0x58 Debug/stm32f10x_tim.o
 .text.NVIC_EncodePriority
                0x000090d0       0x7c Debug/stm32f10x_tim.o
 .text.NVIC_DecodePriority
                0x0000914c       0x80 Debug/stm32f10x_tim.o
 .text.SysTick_Config
                0x000091cc       0x64 Debug/stm32f10x_tim.o
 .text.NVIC_SystemReset
                0x00009230       0x30 Debug/stm32f10x_tim.o
 .text.ITM_SendChar
                0x00009260       0x6c Debug/stm32f10x_tim.o
 .text.TIM_DeInit
                0x000092cc      0x148 Debug/stm32f10x_tim.o
                0x000092cc                TIM_DeInit
 .text.TIM_TimeBaseInit
                0x00009414       0x80 Debug/stm32f10x_tim.o
                0x00009414                TIM_TimeBaseInit
 .text.TIM_OC1Init
                0x00009494      0x11c Debug/stm32f10x_tim.o
                0x00009494                TIM_OC1Init
 .text.TIM_OC2Init
                0x000095b0      0x148 Debug/stm32f10x_tim.o
                0x000095b0                TIM_OC2Init
 .text.TIM_OC3Init
                0x000096f8      0x140 Debug/stm32f10x_tim.o
                0x000096f8                TIM_OC3Init
 .text.TIM_OC4Init
                0x00009838       0xf0 Debug/stm32f10x_tim.o
                0x00009838                TIM_OC4Init
 .text.TIM_ICInit
                0x00009928       0xa8 Debug/stm32f10x_tim.o
                0x00009928                TIM_ICInit
 .text.TIM_PWMIConfig
                0x000099d0       0xc4 Debug/stm32f10x_tim.o
                0x000099d0                TIM_PWMIConfig
 .text.TIM_BDTRConfig
                0x00009a94       0x5c Debug/stm32f10x_tim.o
                0x00009a94                TIM_BDTRConfig
 .text.TIM_TimeBaseStructInit
                0x00009af0       0x3c Debug/stm32f10x_tim.o
                0x00009af0                TIM_TimeBaseStructInit
 .text.TIM_OCStructInit
                0x00009b2c       0x54 Debug/stm32f10x_tim.o
                0x00009b2c                TIM_OCStructInit
 .text.TIM_ICStructInit
                0x00009b80       0x3c Debug/stm32f10x_tim.o
                0x00009b80                TIM_ICStructInit
 .text.TIM_BDTRStructInit
                0x00009bbc       0x4c Debug/stm32f10x_tim.o
                0x00009bbc                TIM_BDTRStructInit
 .text.TIM_Cmd  0x00009c08       0x48 Debug/stm32f10x_tim.o
                0x00009c08                TIM_Cmd
 .text.TIM_CtrlPWMOutputs
                0x00009c50       0x4c Debug/stm32f10x_tim.o
                0x00009c50                TIM_CtrlPWMOutputs
 .text.TIM_ITConfig
                0x00009c9c       0x4c Debug/stm32f10x_tim.o
                0x00009c9c                TIM_ITConfig
 .text.TIM_GenerateEvent
                0x00009ce8       0x1c Debug/stm32f10x_tim.o
                0x00009ce8                TIM_GenerateEvent
 .text.TIM_DMAConfig
                0x00009d04       0x2c Debug/stm32f10x_tim.o
                0x00009d04                TIM_DMAConfig
 .text.TIM_DMACmd
                0x00009d30       0x4c Debug/stm32f10x_tim.o
                0x00009d30                TIM_DMACmd
 .text.TIM_InternalClockConfig
                0x00009d7c       0x2c Debug/stm32f10x_tim.o
                0x00009d7c                TIM_InternalClockConfig
 .text.TIM_ITRxExternalClockConfig
                0x00009da8       0x30 Debug/stm32f10x_tim.o
                0x00009da8                TIM_ITRxExternalClockConfig
 .text.TIM_TIxExternalClockConfig
                0x00009dd8       0x58 Debug/stm32f10x_tim.o
                0x00009dd8                TIM_TIxExternalClockConfig
 .text.TIM_ETRClockMode1Config
                0x00009e30       0x54 Debug/stm32f10x_tim.o
                0x00009e30                TIM_ETRClockMode1Config
 .text.TIM_ETRClockMode2Config
                0x00009e84       0x34 Debug/stm32f10x_tim.o
                0x00009e84                TIM_ETRClockMode2Config
 .text.TIM_ETRConfig
                0x00009eb8       0x54 Debug/stm32f10x_tim.o
                0x00009eb8                TIM_ETRConfig
 .text.TIM_PrescalerConfig
                0x00009f0c       0x28 Debug/stm32f10x_tim.o
                0x00009f0c                TIM_PrescalerConfig
 .text.TIM_CounterModeConfig
                0x00009f34       0x44 Debug/stm32f10x_tim.o
                0x00009f34                TIM_CounterModeConfig
 .text.TIM_SelectInputTrigger
                0x00009f78       0x3c Debug/stm32f10x_tim.o
                0x00009f78                TIM_SelectInputTrigger
 .text.TIM_EncoderInterfaceConfig
                0x00009fb4       0x98 Debug/stm32f10x_tim.o
                0x00009fb4                TIM_EncoderInterfaceConfig
 .text.TIM_ForcedOC1Config
                0x0000a04c       0x3c Debug/stm32f10x_tim.o
                0x0000a04c                TIM_ForcedOC1Config
 .text.TIM_ForcedOC2Config
                0x0000a088       0x40 Debug/stm32f10x_tim.o
                0x0000a088                TIM_ForcedOC2Config
 .text.TIM_ForcedOC3Config
                0x0000a0c8       0x3c Debug/stm32f10x_tim.o
                0x0000a0c8                TIM_ForcedOC3Config
 .text.TIM_ForcedOC4Config
                0x0000a104       0x40 Debug/stm32f10x_tim.o
                0x0000a104                TIM_ForcedOC4Config
 .text.TIM_ARRPreloadConfig
                0x0000a144       0x48 Debug/stm32f10x_tim.o
                0x0000a144                TIM_ARRPreloadConfig
 .text.TIM_SelectCOM
                0x0000a18c       0x48 Debug/stm32f10x_tim.o
                0x0000a18c                TIM_SelectCOM
 .text.TIM_SelectCCDMA
                0x0000a1d4       0x48 Debug/stm32f10x_tim.o
                0x0000a1d4                TIM_SelectCCDMA
 .text.TIM_CCPreloadControl
                0x0000a21c       0x48 Debug/stm32f10x_tim.o
                0x0000a21c                TIM_CCPreloadControl
 .text.TIM_OC1PreloadConfig
                0x0000a264       0x3c Debug/stm32f10x_tim.o
                0x0000a264                TIM_OC1PreloadConfig
 .text.TIM_OC2PreloadConfig
                0x0000a2a0       0x40 Debug/stm32f10x_tim.o
                0x0000a2a0                TIM_OC2PreloadConfig
 .text.TIM_OC3PreloadConfig
                0x0000a2e0       0x3c Debug/stm32f10x_tim.o
                0x0000a2e0                TIM_OC3PreloadConfig
 .text.TIM_OC4PreloadConfig
                0x0000a31c       0x40 Debug/stm32f10x_tim.o
                0x0000a31c                TIM_OC4PreloadConfig
 .text.TIM_OC1FastConfig
                0x0000a35c       0x3c Debug/stm32f10x_tim.o
                0x0000a35c                TIM_OC1FastConfig
 .text.TIM_OC2FastConfig
                0x0000a398       0x40 Debug/stm32f10x_tim.o
                0x0000a398                TIM_OC2FastConfig
 .text.TIM_OC3FastConfig
                0x0000a3d8       0x3c Debug/stm32f10x_tim.o
                0x0000a3d8                TIM_OC3FastConfig
 .text.TIM_OC4FastConfig
                0x0000a414       0x40 Debug/stm32f10x_tim.o
                0x0000a414                TIM_OC4FastConfig
 .text.TIM_ClearOC1Ref
                0x0000a454       0x3c Debug/stm32f10x_tim.o
                0x0000a454                TIM_ClearOC1Ref
 .text.TIM_ClearOC2Ref
                0x0000a490       0x44 Debug/stm32f10x_tim.o
                0x0000a490                TIM_ClearOC2Ref
 .text.TIM_ClearOC3Ref
                0x0000a4d4       0x3c Debug/stm32f10x_tim.o
                0x0000a4d4                TIM_ClearOC3Ref
 .text.TIM_ClearOC4Ref
                0x0000a510       0x44 Debug/stm32f10x_tim.o
                0x0000a510                TIM_ClearOC4Ref
 .text.TIM_OC1PolarityConfig
                0x0000a554       0x3c Debug/stm32f10x_tim.o
                0x0000a554                TIM_OC1PolarityConfig
 .text.TIM_OC1NPolarityConfig
                0x0000a590       0x3c Debug/stm32f10x_tim.o
                0x0000a590                TIM_OC1NPolarityConfig
 .text.TIM_OC2PolarityConfig
                0x0000a5cc       0x40 Debug/stm32f10x_tim.o
                0x0000a5cc                TIM_OC2PolarityConfig
 .text.TIM_OC2NPolarityConfig
                0x0000a60c       0x40 Debug/stm32f10x_tim.o
                0x0000a60c                TIM_OC2NPolarityConfig
 .text.TIM_OC3PolarityConfig
                0x0000a64c       0x40 Debug/stm32f10x_tim.o
                0x0000a64c                TIM_OC3PolarityConfig
 .text.TIM_OC3NPolarityConfig
                0x0000a68c       0x40 Debug/stm32f10x_tim.o
                0x0000a68c                TIM_OC3NPolarityConfig
 .text.TIM_OC4PolarityConfig
                0x0000a6cc       0x40 Debug/stm32f10x_tim.o
                0x0000a6cc                TIM_OC4PolarityConfig
 .text.TIM_CCxCmd
                0x0000a70c       0x60 Debug/stm32f10x_tim.o
                0x0000a70c                TIM_CCxCmd
 .text.TIM_CCxNCmd
                0x0000a76c       0x60 Debug/stm32f10x_tim.o
                0x0000a76c                TIM_CCxNCmd
 .text.TIM_SelectOCxM
                0x0000a7cc       0xd0 Debug/stm32f10x_tim.o
                0x0000a7cc                TIM_SelectOCxM
 .text.TIM_UpdateDisableConfig
                0x0000a89c       0x48 Debug/stm32f10x_tim.o
                0x0000a89c                TIM_UpdateDisableConfig
 .text.TIM_UpdateRequestConfig
                0x0000a8e4       0x48 Debug/stm32f10x_tim.o
                0x0000a8e4                TIM_UpdateRequestConfig
 .text.TIM_SelectHallSensor
                0x0000a92c       0x48 Debug/stm32f10x_tim.o
                0x0000a92c                TIM_SelectHallSensor
 .text.TIM_SelectOnePulseMode
                0x0000a974       0x44 Debug/stm32f10x_tim.o
                0x0000a974                TIM_SelectOnePulseMode
 .text.TIM_SelectOutputTrigger
                0x0000a9b8       0x44 Debug/stm32f10x_tim.o
                0x0000a9b8                TIM_SelectOutputTrigger
 .text.TIM_SelectSlaveMode
                0x0000a9fc       0x44 Debug/stm32f10x_tim.o
                0x0000a9fc                TIM_SelectSlaveMode
 .text.TIM_SelectMasterSlaveMode
                0x0000aa40       0x44 Debug/stm32f10x_tim.o
                0x0000aa40                TIM_SelectMasterSlaveMode
 .text.TIM_SetCounter
                0x0000aa84       0x1c Debug/stm32f10x_tim.o
                0x0000aa84                TIM_SetCounter
 .text.TIM_SetAutoreload
                0x0000aaa0       0x1c Debug/stm32f10x_tim.o
                0x0000aaa0                TIM_SetAutoreload
 .text.TIM_SetCompare1
                0x0000aabc       0x1c Debug/stm32f10x_tim.o
                0x0000aabc                TIM_SetCompare1
 .text.TIM_SetCompare2
                0x0000aad8       0x1c Debug/stm32f10x_tim.o
                0x0000aad8                TIM_SetCompare2
 .text.TIM_SetCompare3
                0x0000aaf4       0x1c Debug/stm32f10x_tim.o
                0x0000aaf4                TIM_SetCompare3
 .text.TIM_SetCompare4
                0x0000ab10       0x20 Debug/stm32f10x_tim.o
                0x0000ab10                TIM_SetCompare4
 .text.TIM_SetIC1Prescaler
                0x0000ab30       0x44 Debug/stm32f10x_tim.o
                0x0000ab30                TIM_SetIC1Prescaler
 .text.TIM_SetIC2Prescaler
                0x0000ab74       0x48 Debug/stm32f10x_tim.o
                0x0000ab74                TIM_SetIC2Prescaler
 .text.TIM_SetIC3Prescaler
                0x0000abbc       0x44 Debug/stm32f10x_tim.o
                0x0000abbc                TIM_SetIC3Prescaler
 .text.TIM_SetIC4Prescaler
                0x0000ac00       0x48 Debug/stm32f10x_tim.o
                0x0000ac00                TIM_SetIC4Prescaler
 .text.TIM_SetClockDivision
                0x0000ac48       0x38 Debug/stm32f10x_tim.o
                0x0000ac48                TIM_SetClockDivision
 .text.TIM_GetCapture1
                0x0000ac80       0x1c Debug/stm32f10x_tim.o
                0x0000ac80                TIM_GetCapture1
 .text.TIM_GetCapture2
                0x0000ac9c       0x1c Debug/stm32f10x_tim.o
                0x0000ac9c                TIM_GetCapture2
 .text.TIM_GetCapture3
                0x0000acb8       0x1c Debug/stm32f10x_tim.o
                0x0000acb8                TIM_GetCapture3
 .text.TIM_GetCapture4
                0x0000acd4       0x1c Debug/stm32f10x_tim.o
                0x0000acd4                TIM_GetCapture4
 .text.TIM_GetCounter
                0x0000acf0       0x1c Debug/stm32f10x_tim.o
                0x0000acf0                TIM_GetCounter
 .text.TIM_GetPrescaler
                0x0000ad0c       0x1c Debug/stm32f10x_tim.o
                0x0000ad0c                TIM_GetPrescaler
 .text.TIM_GetFlagStatus
                0x0000ad28       0x40 Debug/stm32f10x_tim.o
                0x0000ad28                TIM_GetFlagStatus
 .text.TIM_ClearFlag
                0x0000ad68       0x24 Debug/stm32f10x_tim.o
                0x0000ad68                TIM_ClearFlag
 .text.TIM_GetITStatus
                0x0000ad8c       0x64 Debug/stm32f10x_tim.o
                0x0000ad8c                TIM_GetITStatus
 .text.TIM_ClearITPendingBit
                0x0000adf0       0x24 Debug/stm32f10x_tim.o
                0x0000adf0                TIM_ClearITPendingBit
 .text.TI1_Config
                0x0000ae14       0x90 Debug/stm32f10x_tim.o
 .text.TI2_Config
                0x0000aea4       0xac Debug/stm32f10x_tim.o
 .text.TI3_Config
                0x0000af50       0x9c Debug/stm32f10x_tim.o
 .text.TI4_Config
                0x0000afec       0xac Debug/stm32f10x_tim.o
 .text          0x0000b098        0x0 Debug/stm32f10x_spi.o
 .text.__enable_irq
                0x0000b098        0xc Debug/stm32f10x_spi.o
 .text.__disable_irq
                0x0000b0a4        0xc Debug/stm32f10x_spi.o
 .text.__enable_fault_irq
                0x0000b0b0        0xc Debug/stm32f10x_spi.o
 .text.__disable_fault_irq
                0x0000b0bc        0xc Debug/stm32f10x_spi.o
 .text.__NOP    0x0000b0c8        0xc Debug/stm32f10x_spi.o
 .text.__WFI    0x0000b0d4        0xc Debug/stm32f10x_spi.o
 .text.__WFE    0x0000b0e0        0xc Debug/stm32f10x_spi.o
 .text.__SEV    0x0000b0ec        0xc Debug/stm32f10x_spi.o
 .text.__ISB    0x0000b0f8       0x10 Debug/stm32f10x_spi.o
 .text.__DSB    0x0000b108       0x10 Debug/stm32f10x_spi.o
 .text.__DMB    0x0000b118       0x10 Debug/stm32f10x_spi.o
 .text.__CLREX  0x0000b128       0x10 Debug/stm32f10x_spi.o
 .text.NVIC_SetPriorityGrouping
                0x0000b138       0x58 Debug/stm32f10x_spi.o
 .text.NVIC_GetPriorityGrouping
                0x0000b190       0x20 Debug/stm32f10x_spi.o
 .text.NVIC_EnableIRQ
                0x0000b1b0       0x38 Debug/stm32f10x_spi.o
 .text.NVIC_DisableIRQ
                0x0000b1e8       0x3c Debug/stm32f10x_spi.o
 .text.NVIC_GetPendingIRQ
                0x0000b224       0x48 Debug/stm32f10x_spi.o
 .text.NVIC_SetPendingIRQ
                0x0000b26c       0x3c Debug/stm32f10x_spi.o
 .text.NVIC_ClearPendingIRQ
                0x0000b2a8       0x3c Debug/stm32f10x_spi.o
 .text.NVIC_GetActive
                0x0000b2e4       0x48 Debug/stm32f10x_spi.o
 .text.NVIC_SetPriority
                0x0000b32c       0x5c Debug/stm32f10x_spi.o
 .text.NVIC_GetPriority
                0x0000b388       0x58 Debug/stm32f10x_spi.o
 .text.NVIC_EncodePriority
                0x0000b3e0       0x7c Debug/stm32f10x_spi.o
 .text.NVIC_DecodePriority
                0x0000b45c       0x80 Debug/stm32f10x_spi.o
 .text.SysTick_Config
                0x0000b4dc       0x64 Debug/stm32f10x_spi.o
 .text.NVIC_SystemReset
                0x0000b540       0x30 Debug/stm32f10x_spi.o
 .text.ITM_SendChar
                0x0000b570       0x6c Debug/stm32f10x_spi.o
 .text.SPI_I2S_DeInit
                0x0000b5dc       0x88 Debug/stm32f10x_spi.o
                0x0000b5dc                SPI_I2S_DeInit
 .text.SPI_Init
                0x0000b664       0xa4 Debug/stm32f10x_spi.o
                0x0000b664                SPI_Init
 .text.I2S_Init
                0x0000b708      0x22c Debug/stm32f10x_spi.o
                0x0000b708                I2S_Init
 .text.SPI_StructInit
                0x0000b934       0x5c Debug/stm32f10x_spi.o
                0x0000b934                SPI_StructInit
 .text.I2S_StructInit
                0x0000b990       0x44 Debug/stm32f10x_spi.o
                0x0000b990                I2S_StructInit
 .text.SPI_Cmd  0x0000b9d4       0x48 Debug/stm32f10x_spi.o
                0x0000b9d4                SPI_Cmd
 .text.I2S_Cmd  0x0000ba1c       0x48 Debug/stm32f10x_spi.o
                0x0000ba1c                I2S_Cmd
 .text.SPI_I2S_ITConfig
                0x0000ba64       0x70 Debug/stm32f10x_spi.o
                0x0000ba64                SPI_I2S_ITConfig
 .text.SPI_I2S_DMACmd
                0x0000bad4       0x4c Debug/stm32f10x_spi.o
                0x0000bad4                SPI_I2S_DMACmd
 .text.SPI_I2S_SendData
                0x0000bb20       0x1c Debug/stm32f10x_spi.o
                0x0000bb20                SPI_I2S_SendData
 .text.SPI_I2S_ReceiveData
                0x0000bb3c       0x1c Debug/stm32f10x_spi.o
                0x0000bb3c                SPI_I2S_ReceiveData
 .text.SPI_NSSInternalSoftwareConfig
                0x0000bb58       0x4c Debug/stm32f10x_spi.o
                0x0000bb58                SPI_NSSInternalSoftwareConfig
 .text.SPI_SSOutputCmd
                0x0000bba4       0x48 Debug/stm32f10x_spi.o
                0x0000bba4                SPI_SSOutputCmd
 .text.SPI_DataSizeConfig
                0x0000bbec       0x44 Debug/stm32f10x_spi.o
                0x0000bbec                SPI_DataSizeConfig
 .text.SPI_TransmitCRC
                0x0000bc30       0x24 Debug/stm32f10x_spi.o
                0x0000bc30                SPI_TransmitCRC
 .text.SPI_CalculateCRC
                0x0000bc54       0x48 Debug/stm32f10x_spi.o
                0x0000bc54                SPI_CalculateCRC
 .text.SPI_GetCRC
                0x0000bc9c       0x34 Debug/stm32f10x_spi.o
                0x0000bc9c                SPI_GetCRC
 .text.SPI_GetCRCPolynomial
                0x0000bcd0       0x1c Debug/stm32f10x_spi.o
                0x0000bcd0                SPI_GetCRCPolynomial
 .text.SPI_BiDirectionalLineConfig
                0x0000bcec       0x4c Debug/stm32f10x_spi.o
                0x0000bcec                SPI_BiDirectionalLineConfig
 .text.SPI_I2S_GetFlagStatus
                0x0000bd38       0x40 Debug/stm32f10x_spi.o
                0x0000bd38                SPI_I2S_GetFlagStatus
 .text.SPI_I2S_ClearFlag
                0x0000bd78       0x24 Debug/stm32f10x_spi.o
                0x0000bd78                SPI_I2S_ClearFlag
 .text.SPI_I2S_GetITStatus
                0x0000bd9c       0x8c Debug/stm32f10x_spi.o
                0x0000bd9c                SPI_I2S_GetITStatus
 .text.SPI_I2S_ClearITPendingBit
                0x0000be28       0x38 Debug/stm32f10x_spi.o
                0x0000be28                SPI_I2S_ClearITPendingBit
 .text          0x0000be60        0x0 Debug/stm32_eth.o
 .text.__enable_irq
                0x0000be60        0xc Debug/stm32_eth.o
 .text.__disable_irq
                0x0000be6c        0xc Debug/stm32_eth.o
 .text.__enable_fault_irq
                0x0000be78        0xc Debug/stm32_eth.o
 .text.__disable_fault_irq
                0x0000be84        0xc Debug/stm32_eth.o
 .text.__NOP    0x0000be90        0xc Debug/stm32_eth.o
 .text.__WFI    0x0000be9c        0xc Debug/stm32_eth.o
 .text.__WFE    0x0000bea8        0xc Debug/stm32_eth.o
 .text.__SEV    0x0000beb4        0xc Debug/stm32_eth.o
 .text.__ISB    0x0000bec0       0x10 Debug/stm32_eth.o
 .text.__DSB    0x0000bed0       0x10 Debug/stm32_eth.o
 .text.__DMB    0x0000bee0       0x10 Debug/stm32_eth.o
 .text.__CLREX  0x0000bef0       0x10 Debug/stm32_eth.o
 .text.NVIC_SetPriorityGrouping
                0x0000bf00       0x58 Debug/stm32_eth.o
 .text.NVIC_GetPriorityGrouping
                0x0000bf58       0x20 Debug/stm32_eth.o
 .text.NVIC_EnableIRQ
                0x0000bf78       0x38 Debug/stm32_eth.o
 .text.NVIC_DisableIRQ
                0x0000bfb0       0x3c Debug/stm32_eth.o
 .text.NVIC_GetPendingIRQ
                0x0000bfec       0x48 Debug/stm32_eth.o
 .text.NVIC_SetPendingIRQ
                0x0000c034       0x3c Debug/stm32_eth.o
 .text.NVIC_ClearPendingIRQ
                0x0000c070       0x3c Debug/stm32_eth.o
 .text.NVIC_GetActive
                0x0000c0ac       0x48 Debug/stm32_eth.o
 .text.NVIC_SetPriority
                0x0000c0f4       0x5c Debug/stm32_eth.o
 .text.NVIC_GetPriority
                0x0000c150       0x58 Debug/stm32_eth.o
 .text.NVIC_EncodePriority
                0x0000c1a8       0x7c Debug/stm32_eth.o
 .text.NVIC_DecodePriority
                0x0000c224       0x80 Debug/stm32_eth.o
 .text.SysTick_Config
                0x0000c2a4       0x64 Debug/stm32_eth.o
 .text.NVIC_SystemReset
                0x0000c308       0x30 Debug/stm32_eth.o
 .text.ITM_SendChar
                0x0000c338       0x6c Debug/stm32_eth.o
 .text.ETH_DeInit
                0x0000c3a4       0x20 Debug/stm32_eth.o
                0x0000c3a4                ETH_DeInit
 .text.ETH_Init
                0x0000c3c4      0x460 Debug/stm32_eth.o
                0x0000c3c4                ETH_Init
 .text.ETH_StructInit
                0x0000c824      0x1a8 Debug/stm32_eth.o
                0x0000c824                ETH_StructInit
 .text.ETH_Start
                0x0000c9cc       0x2c Debug/stm32_eth.o
                0x0000c9cc                ETH_Start
 .text.ETH_HandleTxPkt
                0x0000c9f8      0x194 Debug/stm32_eth.o
                0x0000c9f8                ETH_HandleTxPkt
 .text.ETH_HandleRxPkt
                0x0000cb8c      0x1bc Debug/stm32_eth.o
                0x0000cb8c                ETH_HandleRxPkt
 .text.ETH_GetRxPktSize
                0x0000cd48       0x78 Debug/stm32_eth.o
                0x0000cd48                ETH_GetRxPktSize
 .text.ETH_DropRxPkt
                0x0000cdc0       0xb0 Debug/stm32_eth.o
                0x0000cdc0                ETH_DropRxPkt
 .text.ETH_ReadPHYRegister
                0x0000ce70       0xcc Debug/stm32_eth.o
                0x0000ce70                ETH_ReadPHYRegister
 .text.ETH_WritePHYRegister
                0x0000cf3c       0xd4 Debug/stm32_eth.o
                0x0000cf3c                ETH_WritePHYRegister
 .text.ETH_PHYLoopBackCmd
                0x0000d010       0x68 Debug/stm32_eth.o
                0x0000d010                ETH_PHYLoopBackCmd
 .text.ETH_MACTransmissionCmd
                0x0000d078       0x4c Debug/stm32_eth.o
                0x0000d078                ETH_MACTransmissionCmd
 .text.ETH_MACReceptionCmd
                0x0000d0c4       0x4c Debug/stm32_eth.o
                0x0000d0c4                ETH_MACReceptionCmd
 .text.ETH_GetFlowControlBusyStatus
                0x0000d110       0x3c Debug/stm32_eth.o
                0x0000d110                ETH_GetFlowControlBusyStatus
 .text.ETH_InitiatePauseControlFrame
                0x0000d14c       0x24 Debug/stm32_eth.o
                0x0000d14c                ETH_InitiatePauseControlFrame
 .text.ETH_BackPressureActivationCmd
                0x0000d170       0x4c Debug/stm32_eth.o
                0x0000d170                ETH_BackPressureActivationCmd
 .text.ETH_GetMACFlagStatus
                0x0000d1bc       0x40 Debug/stm32_eth.o
                0x0000d1bc                ETH_GetMACFlagStatus
 .text.ETH_GetMACITStatus
                0x0000d1fc       0x40 Debug/stm32_eth.o
                0x0000d1fc                ETH_GetMACITStatus
 .text.ETH_MACITConfig
                0x0000d23c       0x58 Debug/stm32_eth.o
                0x0000d23c                ETH_MACITConfig
 .text.ETH_MACAddressConfig
                0x0000d294       0x84 Debug/stm32_eth.o
                0x0000d294                ETH_MACAddressConfig
 .text.ETH_GetMACAddress
                0x0000d318       0x88 Debug/stm32_eth.o
                0x0000d318                ETH_GetMACAddress
 .text.ETH_MACAddressPerfectFilterCmd
                0x0000d3a0       0x64 Debug/stm32_eth.o
                0x0000d3a0                ETH_MACAddressPerfectFilterCmd
 .text.ETH_MACAddressFilterConfig
                0x0000d404       0x60 Debug/stm32_eth.o
                0x0000d404                ETH_MACAddressFilterConfig
 .text.ETH_MACAddressMaskBytesFilterConfig
                0x0000d464       0x5c Debug/stm32_eth.o
                0x0000d464                ETH_MACAddressMaskBytesFilterConfig
 .text.ETH_DMATxDescChainInit
                0x0000d4c0       0xa4 Debug/stm32_eth.o
                0x0000d4c0                ETH_DMATxDescChainInit
 .text.ETH_DMATxDescRingInit
                0x0000d564       0xa0 Debug/stm32_eth.o
                0x0000d564                ETH_DMATxDescRingInit
 .text.ETH_GetDMATxDescFlagStatus
                0x0000d604       0x3c Debug/stm32_eth.o
                0x0000d604                ETH_GetDMATxDescFlagStatus
 .text.ETH_GetDMATxDescCollisionCount
                0x0000d640       0x20 Debug/stm32_eth.o
                0x0000d640                ETH_GetDMATxDescCollisionCount
 .text.ETH_SetDMATxDescOwnBit
                0x0000d660       0x20 Debug/stm32_eth.o
                0x0000d660                ETH_SetDMATxDescOwnBit
 .text.ETH_DMATxDescTransmitITConfig
                0x0000d680       0x38 Debug/stm32_eth.o
                0x0000d680                ETH_DMATxDescTransmitITConfig
 .text.ETH_DMATxDescFrameSegmentConfig
                0x0000d6b8       0x24 Debug/stm32_eth.o
                0x0000d6b8                ETH_DMATxDescFrameSegmentConfig
 .text.ETH_DMATxDescChecksumInsertionConfig
                0x0000d6dc       0x24 Debug/stm32_eth.o
                0x0000d6dc                ETH_DMATxDescChecksumInsertionConfig
 .text.ETH_DMATxDescCRCCmd
                0x0000d700       0x38 Debug/stm32_eth.o
                0x0000d700                ETH_DMATxDescCRCCmd
 .text.ETH_DMATxDescEndOfRingCmd
                0x0000d738       0x38 Debug/stm32_eth.o
                0x0000d738                ETH_DMATxDescEndOfRingCmd
 .text.ETH_DMATxDescSecondAddressChainedCmd
                0x0000d770       0x38 Debug/stm32_eth.o
                0x0000d770                ETH_DMATxDescSecondAddressChainedCmd
 .text.ETH_DMATxDescShortFramePaddingCmd
                0x0000d7a8       0x38 Debug/stm32_eth.o
                0x0000d7a8                ETH_DMATxDescShortFramePaddingCmd
 .text.ETH_DMATxDescTimeStampCmd
                0x0000d7e0       0x38 Debug/stm32_eth.o
                0x0000d7e0                ETH_DMATxDescTimeStampCmd
 .text.ETH_DMATxDescBufferSizeConfig
                0x0000d818       0x30 Debug/stm32_eth.o
                0x0000d818                ETH_DMATxDescBufferSizeConfig
 .text.ETH_DMARxDescChainInit
                0x0000d848       0xac Debug/stm32_eth.o
                0x0000d848                ETH_DMARxDescChainInit
 .text.ETH_DMARxDescRingInit
                0x0000d8f4       0xb4 Debug/stm32_eth.o
                0x0000d8f4                ETH_DMARxDescRingInit
 .text.ETH_GetDMARxDescFlagStatus
                0x0000d9a8       0x3c Debug/stm32_eth.o
                0x0000d9a8                ETH_GetDMARxDescFlagStatus
 .text.ETH_SetDMARxDescOwnBit
                0x0000d9e4       0x20 Debug/stm32_eth.o
                0x0000d9e4                ETH_SetDMARxDescOwnBit
 .text.ETH_GetDMARxDescFrameLength
                0x0000da04       0x28 Debug/stm32_eth.o
                0x0000da04                ETH_GetDMARxDescFrameLength
 .text.ETH_DMARxDescReceiveITConfig
                0x0000da2c       0x38 Debug/stm32_eth.o
                0x0000da2c                ETH_DMARxDescReceiveITConfig
 .text.ETH_DMARxDescEndOfRingCmd
                0x0000da64       0x38 Debug/stm32_eth.o
                0x0000da64                ETH_DMARxDescEndOfRingCmd
 .text.ETH_DMARxDescSecondAddressChainedCmd
                0x0000da9c       0x38 Debug/stm32_eth.o
                0x0000da9c                ETH_DMARxDescSecondAddressChainedCmd
 .text.ETH_GetDMARxDescBufferSize
                0x0000dad4       0x40 Debug/stm32_eth.o
                0x0000dad4                ETH_GetDMARxDescBufferSize
 .text.ETH_SoftwareReset
                0x0000db14       0x2c Debug/stm32_eth.o
                0x0000db14                ETH_SoftwareReset
 .text.ETH_GetSoftwareResetStatus
                0x0000db40       0x40 Debug/stm32_eth.o
                0x0000db40                ETH_GetSoftwareResetStatus
 .text.ETH_GetDMAFlagStatus
                0x0000db80       0x48 Debug/stm32_eth.o
                0x0000db80                ETH_GetDMAFlagStatus
 .text.ETH_DMAClearFlag
                0x0000dbc8       0x28 Debug/stm32_eth.o
                0x0000dbc8                ETH_DMAClearFlag
 .text.ETH_GetDMAITStatus
                0x0000dbf0       0x48 Debug/stm32_eth.o
                0x0000dbf0                ETH_GetDMAITStatus
 .text.ETH_DMAClearITPendingBit
                0x0000dc38       0x28 Debug/stm32_eth.o
                0x0000dc38                ETH_DMAClearITPendingBit
 .text.ETH_GetTransmitProcessState
                0x0000dc60       0x24 Debug/stm32_eth.o
                0x0000dc60                ETH_GetTransmitProcessState
 .text.ETH_GetReceiveProcessState
                0x0000dc84       0x24 Debug/stm32_eth.o
                0x0000dc84                ETH_GetReceiveProcessState
 .text.ETH_FlushTransmitFIFO
                0x0000dca8       0x34 Debug/stm32_eth.o
                0x0000dca8                ETH_FlushTransmitFIFO
 .text.ETH_GetFlushTransmitFIFOStatus
                0x0000dcdc       0x44 Debug/stm32_eth.o
                0x0000dcdc                ETH_GetFlushTransmitFIFOStatus
 .text.ETH_DMATransmissionCmd
                0x0000dd20       0x6c Debug/stm32_eth.o
                0x0000dd20                ETH_DMATransmissionCmd
 .text.ETH_DMAReceptionCmd
                0x0000dd8c       0x6c Debug/stm32_eth.o
                0x0000dd8c                ETH_DMAReceptionCmd
 .text.ETH_DMAITConfig
                0x0000ddf8       0x78 Debug/stm32_eth.o
                0x0000ddf8                ETH_DMAITConfig
 .text.ETH_GetDMAOverflowStatus
                0x0000de70       0x44 Debug/stm32_eth.o
                0x0000de70                ETH_GetDMAOverflowStatus
 .text.ETH_GetRxOverflowMissedFrameCounter
                0x0000deb4       0x2c Debug/stm32_eth.o
                0x0000deb4                ETH_GetRxOverflowMissedFrameCounter
 .text.ETH_GetBufferUnavailableMissedFrameCounter
                0x0000dee0       0x24 Debug/stm32_eth.o
                0x0000dee0                ETH_GetBufferUnavailableMissedFrameCounter
 .text.ETH_GetCurrentTxDescStartAddress
                0x0000df04       0x20 Debug/stm32_eth.o
                0x0000df04                ETH_GetCurrentTxDescStartAddress
 .text.ETH_GetCurrentRxDescStartAddress
                0x0000df24       0x20 Debug/stm32_eth.o
                0x0000df24                ETH_GetCurrentRxDescStartAddress
 .text.ETH_GetCurrentTxBufferAddress
                0x0000df44       0x20 Debug/stm32_eth.o
                0x0000df44                ETH_GetCurrentTxBufferAddress
 .text.ETH_GetCurrentRxBufferAddress
                0x0000df64       0x20 Debug/stm32_eth.o
                0x0000df64                ETH_GetCurrentRxBufferAddress
 .text.ETH_ResumeDMATransmission
                0x0000df84       0x20 Debug/stm32_eth.o
                0x0000df84                ETH_ResumeDMATransmission
 .text.ETH_ResumeDMAReception
                0x0000dfa4       0x20 Debug/stm32_eth.o
                0x0000dfa4                ETH_ResumeDMAReception
 .text.ETH_ResetWakeUpFrameFilterRegisterPointer
                0x0000dfc4       0x24 Debug/stm32_eth.o
                0x0000dfc4                ETH_ResetWakeUpFrameFilterRegisterPointer
 .text.ETH_SetWakeUpFrameFilterRegister
                0x0000dfe8       0x44 Debug/stm32_eth.o
                0x0000dfe8                ETH_SetWakeUpFrameFilterRegister
 .text.ETH_GlobalUnicastWakeUpCmd
                0x0000e02c       0x4c Debug/stm32_eth.o
                0x0000e02c                ETH_GlobalUnicastWakeUpCmd
 .text.ETH_GetPMTFlagStatus
                0x0000e078       0x40 Debug/stm32_eth.o
                0x0000e078                ETH_GetPMTFlagStatus
 .text.ETH_WakeUpFrameDetectionCmd
                0x0000e0b8       0x4c Debug/stm32_eth.o
                0x0000e0b8                ETH_WakeUpFrameDetectionCmd
 .text.ETH_MagicPacketDetectionCmd
                0x0000e104       0x4c Debug/stm32_eth.o
                0x0000e104                ETH_MagicPacketDetectionCmd
 .text.ETH_PowerDownCmd
                0x0000e150       0x4c Debug/stm32_eth.o
                0x0000e150                ETH_PowerDownCmd
 .text.ETH_MMCCounterFreezeCmd
                0x0000e19c       0x54 Debug/stm32_eth.o
                0x0000e19c                ETH_MMCCounterFreezeCmd
 .text.ETH_MMCResetOnReadCmd
                0x0000e1f0       0x54 Debug/stm32_eth.o
                0x0000e1f0                ETH_MMCResetOnReadCmd
 .text.ETH_MMCCounterRolloverCmd
                0x0000e244       0x54 Debug/stm32_eth.o
                0x0000e244                ETH_MMCCounterRolloverCmd
 .text.ETH_MMCCountersReset
                0x0000e298       0x28 Debug/stm32_eth.o
                0x0000e298                ETH_MMCCountersReset
 .text.ETH_MMCITConfig
                0x0000e2c0       0xbc Debug/stm32_eth.o
                0x0000e2c0                ETH_MMCITConfig
 .text.ETH_GetMMCITStatus
                0x0000e37c       0xa0 Debug/stm32_eth.o
                0x0000e37c                ETH_GetMMCITStatus
 .text.ETH_GetMMCRegister
                0x0000e41c       0x20 Debug/stm32_eth.o
                0x0000e41c                ETH_GetMMCRegister
 .text.ETH_EnablePTPTimeStampAddend
                0x0000e43c       0x28 Debug/stm32_eth.o
                0x0000e43c                ETH_EnablePTPTimeStampAddend
 .text.ETH_EnablePTPTimeStampInterruptTrigger
                0x0000e464       0x28 Debug/stm32_eth.o
                0x0000e464                ETH_EnablePTPTimeStampInterruptTrigger
 .text.ETH_EnablePTPTimeStampUpdate
                0x0000e48c       0x28 Debug/stm32_eth.o
                0x0000e48c                ETH_EnablePTPTimeStampUpdate
 .text.ETH_InitializePTPTimeStamp
                0x0000e4b4       0x28 Debug/stm32_eth.o
                0x0000e4b4                ETH_InitializePTPTimeStamp
 .text.ETH_PTPUpdateMethodConfig
                0x0000e4dc       0x54 Debug/stm32_eth.o
                0x0000e4dc                ETH_PTPUpdateMethodConfig
 .text.ETH_PTPTimeStampCmd
                0x0000e530       0x54 Debug/stm32_eth.o
                0x0000e530                ETH_PTPTimeStampCmd
 .text.ETH_GetPTPFlagStatus
                0x0000e584       0x40 Debug/stm32_eth.o
                0x0000e584                ETH_GetPTPFlagStatus
 .text.ETH_SetPTPSubSecondIncrement
                0x0000e5c4       0x20 Debug/stm32_eth.o
                0x0000e5c4                ETH_SetPTPSubSecondIncrement
 .text.ETH_SetPTPTimeStampUpdate
                0x0000e5e4       0x38 Debug/stm32_eth.o
                0x0000e5e4                ETH_SetPTPTimeStampUpdate
 .text.ETH_SetPTPTimeStampAddend
                0x0000e61c       0x20 Debug/stm32_eth.o
                0x0000e61c                ETH_SetPTPTimeStampAddend
 .text.ETH_SetPTPTargetTime
                0x0000e63c       0x30 Debug/stm32_eth.o
                0x0000e63c                ETH_SetPTPTargetTime
 .text.ETH_GetPTPRegister
                0x0000e66c       0x20 Debug/stm32_eth.o
                0x0000e66c                ETH_GetPTPRegister
 .text.ETH_DMAPTPTxDescChainInit
                0x0000e68c       0xe4 Debug/stm32_eth.o
                0x0000e68c                ETH_DMAPTPTxDescChainInit
 .text.ETH_DMAPTPRxDescChainInit
                0x0000e770       0xec Debug/stm32_eth.o
                0x0000e770                ETH_DMAPTPRxDescChainInit
 .text.ETH_HandlePTPTxPkt
                0x0000e85c      0x2ac Debug/stm32_eth.o
                0x0000e85c                ETH_HandlePTPTxPkt
 .text.ETH_HandlePTPRxPkt
                0x0000eb08      0x234 Debug/stm32_eth.o
                0x0000eb08                ETH_HandlePTPRxPkt
 .text          0x0000ed3c        0x0 Debug/list.o
 .text.vListInitialise
                0x0000ed3c       0x48 Debug/list.o
                0x0000ed3c                vListInitialise
 .text.vListInitialiseItem
                0x0000ed84       0x1c Debug/list.o
                0x0000ed84                vListInitialiseItem
 .text.vListInsertEnd
                0x0000eda0       0x50 Debug/list.o
                0x0000eda0                vListInsertEnd
 .text.vListInsert
                0x0000edf0       0x74 Debug/list.o
                0x0000edf0                vListInsert
 .text.vListRemove
                0x0000ee64       0x54 Debug/list.o
                0x0000ee64                vListRemove
 .text          0x0000eeb8        0x0 Debug/queue.o
 .text.xQueueCreate
                0x0000eeb8       0xcc Debug/queue.o
                0x0000eeb8                xQueueCreate
 .text.xQueueGenericSend
                0x0000ef84      0x120 Debug/queue.o
                0x0000ef84                xQueueGenericSend
 .text.xQueueGenericSendFromISR
                0x0000f0a4       0x98 Debug/queue.o
                0x0000f0a4                xQueueGenericSendFromISR
 .text.xQueueGenericReceive
                0x0000f13c      0x170 Debug/queue.o
                0x0000f13c                xQueueGenericReceive
 .text.xQueueReceiveFromISR
                0x0000f2ac       0x9c Debug/queue.o
                0x0000f2ac                xQueueReceiveFromISR
 .text.uxQueueMessagesWaiting
                0x0000f348       0x24 Debug/queue.o
                0x0000f348                uxQueueMessagesWaiting
 .text.uxQueueMessagesWaitingFromISR
                0x0000f36c       0x1c Debug/queue.o
                0x0000f36c                uxQueueMessagesWaitingFromISR
 .text.vQueueDelete
                0x0000f388       0x20 Debug/queue.o
                0x0000f388                vQueueDelete
 .text.prvCopyDataToQueue
                0x0000f3a8       0xac Debug/queue.o
 .text.prvCopyDataFromQueue
                0x0000f454       0x50 Debug/queue.o
 .text.prvUnlockQueue
                0x0000f4a4       0xa0 Debug/queue.o
 .text.prvIsQueueEmpty
                0x0000f544       0x2c Debug/queue.o
 .text.xQueueIsQueueEmptyFromISR
                0x0000f570       0x24 Debug/queue.o
                0x0000f570                xQueueIsQueueEmptyFromISR
 .text.prvIsQueueFull
                0x0000f594       0x30 Debug/queue.o
 .text.xQueueIsQueueFullFromISR
                0x0000f5c4       0x28 Debug/queue.o
                0x0000f5c4                xQueueIsQueueFullFromISR
 .text          0x0000f5ec        0x0 Debug/tasks.o
 .text.xTaskGenericCreate
                0x0000f5ec      0x1b4 Debug/tasks.o
                0x0000f5ec                xTaskGenericCreate
 .text.vTaskDelay
                0x0000f7a0       0xb8 Debug/tasks.o
                0x0000f7a0                vTaskDelay
 .text.vTaskSuspend
                0x0000f858       0x84 Debug/tasks.o
                0x0000f858                vTaskSuspend
 .text.xTaskIsTaskSuspended
                0x0000f8dc       0x50 Debug/tasks.o
                0x0000f8dc                xTaskIsTaskSuspended
 .text.vTaskResume
                0x0000f92c       0xac Debug/tasks.o
                0x0000f92c                vTaskResume
 .text.xTaskResumeFromISR
                0x0000f9d8       0xc0 Debug/tasks.o
                0x0000f9d8                xTaskResumeFromISR
 .text.vTaskStartScheduler
                0x0000fa98       0x78 Debug/tasks.o
                0x0000fa98                vTaskStartScheduler
 .text.vTaskEndScheduler
                0x0000fb10       0x24 Debug/tasks.o
                0x0000fb10                vTaskEndScheduler
 .text.vTaskSuspendAll
                0x0000fb34       0x3c Debug/tasks.o
                0x0000fb34                vTaskSuspendAll
 .text.xTaskResumeAll
                0x0000fb70      0x174 Debug/tasks.o
                0x0000fb70                xTaskResumeAll
 .text.xTaskGetTickCount
                0x0000fce4       0x28 Debug/tasks.o
                0x0000fce4                xTaskGetTickCount
 .text.uxTaskGetNumberOfTasks
                0x0000fd0c       0x18 Debug/tasks.o
                0x0000fd0c                uxTaskGetNumberOfTasks
 .text.vTaskIncrementTick
                0x0000fd24      0x13c Debug/tasks.o
                0x0000fd24                vTaskIncrementTick
 .text.vTaskSwitchContext
                0x0000fe60      0x108 Debug/tasks.o
                0x0000fe60                vTaskSwitchContext
 .text.vTaskPlaceOnEventList
                0x0000ff68       0xd4 Debug/tasks.o
                0x0000ff68                vTaskPlaceOnEventList
 .text.xTaskRemoveFromEventList
                0x0001003c       0xd4 Debug/tasks.o
                0x0001003c                xTaskRemoveFromEventList
 .text.vTaskSetTimeOutState
                0x00010110       0x30 Debug/tasks.o
                0x00010110                vTaskSetTimeOutState
 .text.xTaskCheckForTimeOut
                0x00010140       0xa8 Debug/tasks.o
                0x00010140                xTaskCheckForTimeOut
 .text.vTaskMissedYield
                0x000101e8       0x18 Debug/tasks.o
                0x000101e8                vTaskMissedYield
 .text.prvIdleTask
                0x00010200       0x24 Debug/tasks.o
 .text.prvInitialiseTCBVariables
                0x00010224       0x78 Debug/tasks.o
 .text.prvInitialiseTaskLists
                0x0001029c       0x98 Debug/tasks.o
 .text.prvCheckTasksWaitingTermination
                0x00010334        0xc Debug/tasks.o
 .text.prvAllocateTCBAndStack
                0x00010340       0x6c Debug/tasks.o
 .text.xTaskGetCurrentTaskHandle
                0x000103ac       0x20 Debug/tasks.o
                0x000103ac                xTaskGetCurrentTaskHandle
 .text          0x000103cc        0x0 Debug/port.o
 .text.pxPortInitialiseStack
                0x000103cc       0x60 Debug/port.o
                0x000103cc                pxPortInitialiseStack
 .text.SVC_Handler
                0x0001042c       0x20 Debug/port.o
                0x0001042c                SVC_Handler
 .text.vPortStartFirstTask
                0x0001044c       0x10 Debug/port.o
                0x0001044c                vPortStartFirstTask
 .text.xPortStartScheduler
                0x0001045c       0x54 Debug/port.o
                0x0001045c                xPortStartScheduler
 .text.vPortEndScheduler
                0x000104b0        0xc Debug/port.o
                0x000104b0                vPortEndScheduler
 .text.vPortYieldFromISR
                0x000104bc       0x18 Debug/port.o
                0x000104bc                vPortYieldFromISR
 .text.vPortEnterCritical
                0x000104d4       0x2c Debug/port.o
                0x000104d4                vPortEnterCritical
 .text.vPortExitCritical
                0x00010500       0x38 Debug/port.o
                0x00010500                vPortExitCritical
 .text.PendSV_Handler
                0x00010538       0x3c Debug/port.o
                0x00010538                PendSV_Handler
 .text.SysTick_Handler
                0x00010574       0x38 Debug/port.o
                0x00010574                SysTick_Handler
 .text.prvSetupTimerInterrupt
                0x000105ac       0x2c Debug/port.o
 .text          0x000105d8        0x0 Debug/heap_2.o
 .text.pvPortMalloc
                0x000105d8      0x1c4 Debug/heap_2.o
                0x000105d8                pvPortMalloc
 .text.vPortFree
                0x0001079c       0x88 Debug/heap_2.o
                0x0001079c                vPortFree
 .text.xPortGetFreeHeapSize
                0x00010824       0x18 Debug/heap_2.o
                0x00010824                xPortGetFreeHeapSize
 .text.vPortInitialiseBlocks
                0x0001083c        0xc Debug/heap_2.o
                0x0001083c                vPortInitialiseBlocks
 .text          0x00010848        0x0 Debug/amiarm.o
 .text.AmiSetWordToBe
                0x00010848       0x30 Debug/amiarm.o
                0x00010848                AmiSetWordToBe
 .text.AmiSetDwordToBe
                0x00010878       0x58 Debug/amiarm.o
                0x00010878                AmiSetDwordToBe
 .text.AmiSetWordToLe
                0x000108d0       0x30 Debug/amiarm.o
                0x000108d0                AmiSetWordToLe
 .text.AmiSetDwordToLe
                0x00010900       0x58 Debug/amiarm.o
                0x00010900                AmiSetDwordToLe
 .text.AmiGetWordFromBe
                0x00010958       0x34 Debug/amiarm.o
                0x00010958                AmiGetWordFromBe
 .text.AmiGetDwordFromBe
                0x0001098c       0x58 Debug/amiarm.o
                0x0001098c                AmiGetDwordFromBe
 .text.AmiGetWordFromLe
                0x000109e4       0x34 Debug/amiarm.o
                0x000109e4                AmiGetWordFromLe
 .text.AmiGetDwordFromLe
                0x00010a18       0x58 Debug/amiarm.o
                0x00010a18                AmiGetDwordFromLe
 .text.AmiSetDword24ToBe
                0x00010a70       0x34 Debug/amiarm.o
                0x00010a70                AmiSetDword24ToBe
 .text.AmiSetDword24ToLe
                0x00010aa4       0x3c Debug/amiarm.o
                0x00010aa4                AmiSetDword24ToLe
 .text.AmiGetDword24FromBe
                0x00010ae0       0x28 Debug/amiarm.o
                0x00010ae0                AmiGetDword24FromBe
 .text.AmiGetDword24FromLe
                0x00010b08       0x28 Debug/amiarm.o
                0x00010b08                AmiGetDword24FromLe
 .text.AmiSetQword64ToBe
                0x00010b30       0x90 Debug/amiarm.o
                0x00010b30                AmiSetQword64ToBe
 .text.AmiSetQword64ToLe
                0x00010bc0       0x6c Debug/amiarm.o
                0x00010bc0                AmiSetQword64ToLe
 .text.AmiGetQword64FromBe
                0x00010c2c       0xa4 Debug/amiarm.o
                0x00010c2c                AmiGetQword64FromBe
 .text.AmiGetQword64FromLe
                0x00010cd0       0x68 Debug/amiarm.o
                0x00010cd0                AmiGetQword64FromLe
 .text.AmiSetQword40ToBe
                0x00010d38       0x60 Debug/amiarm.o
                0x00010d38                AmiSetQword40ToBe
 .text.AmiSetQword40ToLe
                0x00010d98       0x4c Debug/amiarm.o
                0x00010d98                AmiSetQword40ToLe
 .text.AmiGetQword40FromBe
                0x00010de4       0x40 Debug/amiarm.o
                0x00010de4                AmiGetQword40FromBe
 .text.AmiGetQword40FromLe
                0x00010e24       0x40 Debug/amiarm.o
                0x00010e24                AmiGetQword40FromLe
 .text.AmiSetQword48ToBe
                0x00010e64       0x70 Debug/amiarm.o
                0x00010e64                AmiSetQword48ToBe
 .text.AmiSetQword48ToLe
                0x00010ed4       0x58 Debug/amiarm.o
                0x00010ed4                AmiSetQword48ToLe
 .text.AmiGetQword48FromBe
                0x00010f2c       0x40 Debug/amiarm.o
                0x00010f2c                AmiGetQword48FromBe
 .text.AmiGetQword48FromLe
                0x00010f6c       0x40 Debug/amiarm.o
                0x00010f6c                AmiGetQword48FromLe
 .text.AmiSetQword56ToBe
                0x00010fac       0x80 Debug/amiarm.o
                0x00010fac                AmiSetQword56ToBe
 .text.AmiSetQword56ToLe
                0x0001102c       0x60 Debug/amiarm.o
                0x0001102c                AmiSetQword56ToLe
 .text.AmiGetQword56FromBe
                0x0001108c       0x40 Debug/amiarm.o
                0x0001108c                AmiGetQword56FromBe
 .text.AmiGetQword56FromLe
                0x000110cc       0x40 Debug/amiarm.o
                0x000110cc                AmiGetQword56FromLe
 .text.AmiSetTimeOfDay
                0x0001110c       0x34 Debug/amiarm.o
                0x0001110c                AmiSetTimeOfDay
 .text.AmiGetTimeOfDay
                0x00011140       0x38 Debug/amiarm.o
                0x00011140                AmiGetTimeOfDay
 .text          0x00011178        0x0 Debug/EplApiGeneric.o
 .text.EplApiInitialize
                0x00011178      0x254 Debug/EplApiGeneric.o
                0x00011178                EplApiInitialize
 .text.EplApiShutdown
                0x000113cc       0x88 Debug/EplApiGeneric.o
                0x000113cc                EplApiShutdown
 .text.EplApiExecNmtCommand
                0x00011454       0x28 Debug/EplApiGeneric.o
                0x00011454                EplApiExecNmtCommand
 .text.EplApiLinkObject
                0x0001147c      0x16c Debug/EplApiGeneric.o
                0x0001147c                EplApiLinkObject
 .text.EplApiReadObject
                0x000115e8       0xf0 Debug/EplApiGeneric.o
                0x000115e8                EplApiReadObject
 .text.EplApiWriteObject
                0x000116d8       0xd8 Debug/EplApiGeneric.o
                0x000116d8                EplApiWriteObject
 .text.EplApiFreeSdoChannel
                0x000117b0       0x24 Debug/EplApiGeneric.o
                0x000117b0                EplApiFreeSdoChannel
 .text.EplApiAbortSdo
                0x000117d4       0x28 Debug/EplApiGeneric.o
                0x000117d4                EplApiAbortSdo
 .text.EplApiReadLocalObject
                0x000117fc       0x40 Debug/EplApiGeneric.o
                0x000117fc                EplApiReadLocalObject
 .text.EplApiWriteLocalObject
                0x0001183c       0x30 Debug/EplApiGeneric.o
                0x0001183c                EplApiWriteLocalObject
 .text.EplApiPostUserEvent
                0x0001186c       0x44 Debug/EplApiGeneric.o
                0x0001186c                EplApiPostUserEvent
 .text.EplApiCbObdAccess
                0x000118b0      0x1bc Debug/EplApiGeneric.o
                0x000118b0                EplApiCbObdAccess
 .text.EplApiProcessEvent
                0x00011a6c       0xe0 Debug/EplApiGeneric.o
 .text.EplApiCbNmtStateChange
                0x00011b4c      0x188 Debug/EplApiGeneric.o
 .text.EplApiUpdateDllConfig
                0x00011cd4      0x4ac Debug/EplApiGeneric.o
 .text.EplApiUpdateObd
                0x00012180      0x3fc Debug/EplApiGeneric.o
 .text.EplApiCbSdoCon
                0x0001257c       0x64 Debug/EplApiGeneric.o
 .text          0x000125e0        0x0 Debug/EplApiProcessImage.o
 .text.EplApiProcessImageSetup
                0x000125e0       0x1c Debug/EplApiProcessImage.o
                0x000125e0                EplApiProcessImageSetup
 .text.EplApiProcessImageExchangeIn
                0x000125fc       0x1c Debug/EplApiProcessImage.o
                0x000125fc                EplApiProcessImageExchangeIn
 .text.EplApiProcessImageExchangeOut
                0x00012618       0x1c Debug/EplApiProcessImage.o
                0x00012618                EplApiProcessImageExchangeOut
 .text          0x00012634        0x0 Debug/EplDllk.o
 .text.EplDllkAddInstance
                0x00012634      0x128 Debug/EplDllk.o
                0x00012634                EplDllkAddInstance
 .text.EplDllkDelInstance
                0x0001275c       0x38 Debug/EplDllk.o
                0x0001275c                EplDllkDelInstance
 .text.EplDllkProcess
                0x00012794      0x2d0 Debug/EplDllk.o
                0x00012794                EplDllkProcess
 .text.EplDllkConfig
                0x00012a64      0x104 Debug/EplDllk.o
                0x00012a64                EplDllkConfig
 .text.EplDllkSetIdentity
                0x00012b68       0x34 Debug/EplDllk.o
                0x00012b68                EplDllkSetIdentity
 .text.EplDllkRegAsyncHandler
                0x00012b9c       0x44 Debug/EplDllk.o
                0x00012b9c                EplDllkRegAsyncHandler
 .text.EplDllkDeregAsyncHandler
                0x00012be0       0x48 Debug/EplDllk.o
                0x00012be0                EplDllkDeregAsyncHandler
 .text.EplDllkRegSyncHandler
                0x00012c28       0x2c Debug/EplDllk.o
                0x00012c28                EplDllkRegSyncHandler
 .text.EplDllkRegRpdoHandler
                0x00012c54       0x2c Debug/EplDllk.o
                0x00012c54                EplDllkRegRpdoHandler
 .text.EplDllkRegTpdoHandler
                0x00012c80       0x2c Debug/EplDllk.o
                0x00012c80                EplDllkRegTpdoHandler
 .text.EplDllkSetAsndServiceIdFilter
                0x00012cac       0x3c Debug/EplDllk.o
                0x00012cac                EplDllkSetAsndServiceIdFilter
 .text.EplDllkProcessCreate
                0x00012ce8      0xa80 Debug/EplDllk.o
 .text.EplDllkProcessDestroy
                0x00013768      0x148 Debug/EplDllk.o
 .text.EplDllkProcessNmtEvent
                0x000138b0       0xe0 Debug/EplDllk.o
 .text.EplDllkProcessSync
                0x00013990       0xb4 Debug/EplDllk.o
 .text.EplDllkProcessFillTx
                0x00013a44      0x29c Debug/EplDllk.o
 .text.EplDllkChangeState
                0x00013ce0      0x3d8 Debug/EplDllk.o
 .text.EplDllkCbFrameReceived
                0x000140b8      0x7c0 Debug/EplDllk.o
 .text.EplDllkCbFrameTransmitted
                0x00014878      0x148 Debug/EplDllk.o
 .text.EplDllkForwardRpdo
                0x000149c0       0x40 Debug/EplDllk.o
 .text.EplDllkProcessTpdo
                0x00014a00       0x48 Debug/EplDllk.o
 .text.EplDllkUpdateFrameIdentRes
                0x00014a48       0x3c Debug/EplDllk.o
 .text.EplDllkUpdateFrameStatusRes
                0x00014a84       0x4c Debug/EplDllk.o
 .text.EplDllkUpdateFramePres
                0x00014ad0       0x94 Debug/EplDllk.o
 .text.EplDllkCreateTxFrame
                0x00014b64      0x22c Debug/EplDllk.o
 .text.EplDllkDeleteTxFrame
                0x00014d90       0x78 Debug/EplDllk.o
 .text.EplDllkCheckFrame
                0x00014e08       0xc4 Debug/EplDllk.o
 .text.EplDllkCbCnTimer
                0x00014ecc       0xcc Debug/EplDllk.o
 .text          0x00014f98        0x0 Debug/EplDllkCal.o
 .text.EplDllkCalAddInstance
                0x00014f98       0x38 Debug/EplDllkCal.o
                0x00014f98                EplDllkCalAddInstance
 .text.EplDllkCalDelInstance
                0x00014fd0       0x38 Debug/EplDllkCal.o
                0x00014fd0                EplDllkCalDelInstance
 .text.EplDllkCalProcess
                0x00015008       0x98 Debug/EplDllkCal.o
                0x00015008                EplDllkCalProcess
 .text.EplDllkCalAsyncGetTxCount
                0x000150a0       0x70 Debug/EplDllkCal.o
                0x000150a0                EplDllkCalAsyncGetTxCount
 .text.EplDllkCalAsyncGetTxFrame
                0x00015110       0x9c Debug/EplDllkCal.o
                0x00015110                EplDllkCalAsyncGetTxFrame
 .text.EplDllkCalAsyncFrameReceived
                0x000151ac       0x80 Debug/EplDllkCal.o
                0x000151ac                EplDllkCalAsyncFrameReceived
 .text.EplDllkCalAsyncSend
                0x0001522c       0xdc Debug/EplDllkCal.o
                0x0001522c                EplDllkCalAsyncSend
 .text.EplDllkCalAsyncClearBuffer
                0x00015308       0x38 Debug/EplDllkCal.o
                0x00015308                EplDllkCalAsyncClearBuffer
 .text.EplDllkCalGetStatistics
                0x00015340       0x88 Debug/EplDllkCal.o
                0x00015340                EplDllkCalGetStatistics
 .text          0x000153c8        0x0 Debug/EplDlluCal.o
 .text.EplDlluCalAddInstance
                0x000153c8       0x2c Debug/EplDlluCal.o
                0x000153c8                EplDlluCalAddInstance
 .text.EplDlluCalDelInstance
                0x000153f4       0x2c Debug/EplDlluCal.o
                0x000153f4                EplDlluCalDelInstance
 .text.EplDlluCalProcess
                0x00015420       0x8c Debug/EplDlluCal.o
                0x00015420                EplDlluCalProcess
 .text.EplDlluCalConfig
                0x000154ac       0x40 Debug/EplDlluCal.o
                0x000154ac                EplDlluCalConfig
 .text.EplDlluCalSetIdentity
                0x000154ec       0x40 Debug/EplDlluCal.o
                0x000154ec                EplDlluCalSetIdentity
 .text.EplDlluCalRegAsndService
                0x0001552c       0x54 Debug/EplDlluCal.o
                0x0001552c                EplDlluCalRegAsndService
 .text.EplDlluCalAsyncSend
                0x00015580       0x2c Debug/EplDlluCal.o
                0x00015580                EplDlluCalAsyncSend
 .text.EplDlluCalSetAsndServiceIdFilter
                0x000155ac       0x50 Debug/EplDlluCal.o
 .text          0x000155fc        0x0 Debug/EplErrorHandlerk.o
 .text.EplErrorHandlerkInit
                0x000155fc       0x1c Debug/EplErrorHandlerk.o
                0x000155fc                EplErrorHandlerkInit
 .text.EplErrorHandlerkAddInstance
                0x00015618       0x68 Debug/EplErrorHandlerk.o
                0x00015618                EplErrorHandlerkAddInstance
 .text.EplErrorHandlerkDelInstance
                0x00015680       0x1c Debug/EplErrorHandlerk.o
                0x00015680                EplErrorHandlerkDelInstance
 .text.EplErrorHandlerkProcess
                0x0001569c      0x308 Debug/EplErrorHandlerk.o
                0x0001569c                EplErrorHandlerkProcess
 .text.EplErrorHandlerkLinkErrorCounter
                0x000159a4       0xb0 Debug/EplErrorHandlerk.o
 .text          0x00015a54        0x0 Debug/EplEventk.o
 .text.EplEventkInit
                0x00015a54       0x1c Debug/EplEventk.o
                0x00015a54                EplEventkInit
 .text.EplEventkAddInstance
                0x00015a70       0x1c Debug/EplEventk.o
                0x00015a70                EplEventkAddInstance
 .text.EplEventkDelInstance
                0x00015a8c       0x1c Debug/EplEventk.o
                0x00015a8c                EplEventkDelInstance
 .text.EplEventkProcess
                0x00015aa8      0x220 Debug/EplEventk.o
                0x00015aa8                EplEventkProcess
 .text.EplEventkPost
                0x00015cc8       0x68 Debug/EplEventk.o
                0x00015cc8                EplEventkPost
 .text.EplEventkPostError
                0x00015d30       0xd0 Debug/EplEventk.o
                0x00015d30                EplEventkPostError
 .text          0x00015e00        0x0 Debug/EplEventu.o
 .text.EplEventuInit
                0x00015e00       0x20 Debug/EplEventu.o
                0x00015e00                EplEventuInit
 .text.EplEventuAddInstance
                0x00015e20       0x28 Debug/EplEventu.o
                0x00015e20                EplEventuAddInstance
 .text.EplEventuDelInstance
                0x00015e48       0x1c Debug/EplEventu.o
                0x00015e48                EplEventuDelInstance
 .text.EplEventuProcess
                0x00015e64      0x188 Debug/EplEventu.o
                0x00015e64                EplEventuProcess
 .text.EplEventuPost
                0x00015fec       0x68 Debug/EplEventu.o
                0x00015fec                EplEventuPost
 .text.EplEventuPostError
                0x00016054       0xd0 Debug/EplEventu.o
                0x00016054                EplEventuPostError
 .text          0x00016124        0x0 Debug/EplIdentu.o
 .text.EplIdentuInit
                0x00016124       0x1c Debug/EplIdentu.o
                0x00016124                EplIdentuInit
 .text.EplIdentuAddInstance
                0x00016140       0x44 Debug/EplIdentu.o
                0x00016140                EplIdentuAddInstance
 .text.EplIdentuDelInstance
                0x00016184       0x34 Debug/EplIdentu.o
                0x00016184                EplIdentuDelInstance
 .text.EplIdentuReset
                0x000161b8       0x68 Debug/EplIdentu.o
                0x000161b8                EplIdentuReset
 .text.EplIdentuGetIdentResponse
                0x00016220       0x50 Debug/EplIdentu.o
                0x00016220                EplIdentuGetIdentResponse
 .text.EplIdentuRequestIdentResponse
                0x00016270       0x3c Debug/EplIdentu.o
                0x00016270                EplIdentuRequestIdentResponse
 .text.EplIdentuGetRunningRequests
                0x000162ac       0x58 Debug/EplIdentu.o
                0x000162ac                EplIdentuGetRunningRequests
 .text.EplIdentuCbIdentResponse
                0x00016304      0x120 Debug/EplIdentu.o
 .text          0x00016424        0x0 Debug/EplLedu.o
 .text          0x00016424        0x0 Debug/EplNmtCnu.o
 .text.EplNmtCnuInit
                0x00016424       0x20 Debug/EplNmtCnu.o
                0x00016424                EplNmtCnuInit
 .text.EplNmtCnuAddInstance
                0x00016444       0x54 Debug/EplNmtCnu.o
                0x00016444                EplNmtCnuAddInstance
 .text.EplNmtCnuDelInstance
                0x00016498       0x2c Debug/EplNmtCnu.o
                0x00016498                EplNmtCnuDelInstance
 .text.EplNmtCnuSendNmtRequest
                0x000164c4       0xe0 Debug/EplNmtCnu.o
                0x000164c4                EplNmtCnuSendNmtRequest
 .text.EplNmtCnuRegisterCheckEventCb
                0x000165a4       0x28 Debug/EplNmtCnu.o
                0x000165a4                EplNmtCnuRegisterCheckEventCb
 .text.EplNmtCnuCommandCb
                0x000165cc      0x580 Debug/EplNmtCnu.o
 .text.EplNmtCnuGetNmtCommand
                0x00016b4c       0x28 Debug/EplNmtCnu.o
 .text.EplNmtCnuNodeIdList
                0x00016b74       0x60 Debug/EplNmtCnu.o
 .text          0x00016bd4        0x0 Debug/EplNmtk.o
 .text.EplNmtkInit
                0x00016bd4       0x1c Debug/EplNmtk.o
                0x00016bd4                EplNmtkInit
 .text.EplNmtkAddInstance
                0x00016bf0       0x70 Debug/EplNmtk.o
                0x00016bf0                EplNmtkAddInstance
 .text.EplNmtkDelInstance
                0x00016c60       0x28 Debug/EplNmtk.o
                0x00016c60                EplNmtkDelInstance
 .text.EplNmtkProcess
                0x00016c88      0xd20 Debug/EplNmtk.o
                0x00016c88                EplNmtkProcess
 .text          0x000179a8        0x0 Debug/EplNmtkCal.o
 .text          0x000179a8        0x0 Debug/EplNmtMnu.o
 .text          0x000179a8        0x0 Debug/EplNmtu.o
 .text.EplNmtuInit
                0x000179a8       0x1c Debug/EplNmtu.o
                0x000179a8                EplNmtuInit
 .text.EplNmtuAddInstance
                0x000179c4       0x28 Debug/EplNmtu.o
                0x000179c4                EplNmtuAddInstance
 .text.EplNmtuDelInstance
                0x000179ec       0x34 Debug/EplNmtu.o
                0x000179ec                EplNmtuDelInstance
 .text.EplNmtuNmtEvent
                0x00017a20       0x48 Debug/EplNmtu.o
                0x00017a20                EplNmtuNmtEvent
 .text.EplNmtuGetNmtState
                0x00017a68       0x18 Debug/EplNmtu.o
                0x00017a68                EplNmtuGetNmtState
 .text.EplNmtuProcessEvent
                0x00017a80      0x1e8 Debug/EplNmtu.o
                0x00017a80                EplNmtuProcessEvent
 .text.EplNmtuRegisterStateChangeCb
                0x00017c68       0x28 Debug/EplNmtu.o
                0x00017c68                EplNmtuRegisterStateChangeCb
 .text          0x00017c90        0x0 Debug/EplNmtuCal.o
 .text          0x00017c90        0x0 Debug/EplObd.o
 .text.EplObdInit
                0x00017c90       0x2c Debug/EplObd.o
                0x00017c90                EplObdInit
 .text.EplObdAddInstance
                0x00017cbc       0x44 Debug/EplObd.o
                0x00017cbc                EplObdAddInstance
 .text.EplObdDeleteInstance
                0x00017d00       0x10 Debug/EplObd.o
                0x00017d00                EplObdDeleteInstance
 .text.EplObdWriteEntry
                0x00017d10       0x78 Debug/EplObd.o
                0x00017d10                EplObdWriteEntry
 .text.EplObdReadEntry
                0x00017d88      0x140 Debug/EplObd.o
                0x00017d88                EplObdReadEntry
 .text.EplObdAccessOdPart
                0x00017ec8       0xf0 Debug/EplObd.o
                0x00017ec8                EplObdAccessOdPart
 .text.EplObdDefineVar
                0x00017fb8       0xd4 Debug/EplObd.o
                0x00017fb8                EplObdDefineVar
 .text.EplObdGetObjectDataPtr
                0x0001808c       0x6c Debug/EplObd.o
                0x0001808c                EplObdGetObjectDataPtr
 .text.EplObdInitVarEntry
                0x000180f8       0x44 Debug/EplObd.o
                0x000180f8                EplObdInitVarEntry
 .text.EplObdGetDataSize
                0x0001813c       0x6c Debug/EplObd.o
                0x0001813c                EplObdGetDataSize
 .text.EplObdGetNodeId
                0x000181a8       0x44 Debug/EplObd.o
                0x000181a8                EplObdGetNodeId
 .text.EplObdSetNodeId
                0x000181ec       0xa0 Debug/EplObd.o
                0x000181ec                EplObdSetNodeId
 .text.EplObdIsNumerical
                0x0001828c       0x68 Debug/EplObd.o
                0x0001828c                EplObdIsNumerical
 .text.EplObdGetType
                0x000182f4       0x60 Debug/EplObd.o
                0x000182f4                EplObdGetType
 .text.EplObdReadEntryToLe
                0x00018354      0x244 Debug/EplObd.o
                0x00018354                EplObdReadEntryToLe
 .text.EplObdWriteEntryFromLe
                0x00018598      0x190 Debug/EplObd.o
                0x00018598                EplObdWriteEntryFromLe
 .text.EplObdGetAccessType
                0x00018728       0x60 Debug/EplObd.o
                0x00018728                EplObdGetAccessType
 .text.EplObdSearchVarEntry
                0x00018788       0x40 Debug/EplObd.o
                0x00018788                EplObdSearchVarEntry
 .text.EplObdCallObjectCallback
                0x000187c8       0x58 Debug/EplObd.o
 .text.EplObdGetDataSizeIntern
                0x00018820       0x48 Debug/EplObd.o
 .text.EplObdGetStrLen
                0x00018868       0x64 Debug/EplObd.o
 .text.EplObdWriteEntryPre
                0x000188cc      0x23c Debug/EplObd.o
 .text.EplObdWriteEntryPost
                0x00018b08       0x80 Debug/EplObd.o
 .text.EplObdGetObjectSize
                0x00018b88      0x194 Debug/EplObd.o
 .text.EplObdGetObjectDefaultPtr
                0x00018d1c       0x4c Debug/EplObd.o
 .text.EplObdGetVarEntry
                0x00018d68       0xac Debug/EplObd.o
 .text.EplObdGetEntry
                0x00018e14       0x98 Debug/EplObd.o
 .text.EplObdGetObjectCurrentPtr
                0x00018eac       0x94 Debug/EplObd.o
 .text.EplObdGetIndexIntern
                0x00018f40       0xc8 Debug/EplObd.o
 .text.EplObdGetSubindexIntern
                0x00019008       0xb4 Debug/EplObd.o
 .text.EplObdAccessOdPartIntern
                0x000190bc      0x20c Debug/EplObd.o
 .text.EplObdCopyObjectData
                0x000192c8       0x6c Debug/EplObd.o
 .text.EplObdIsNumericalIntern
                0x00019334       0x48 Debug/EplObd.o
 .text.EplObdGetObjectDataPtrIntern
                0x0001937c       0x44 Debug/EplObd.o
 .text          0x000193c0        0x0 Debug/EplObdkCal.o
 .text          0x000193c0        0x0 Debug/EplObdu.o
 .text          0x000193c0        0x0 Debug/EplObduCal.o
 .text          0x000193c0        0x0 Debug/EplPdok.o
 .text.EplPdokAddInstance
                0x000193c0       0x3c Debug/EplPdok.o
                0x000193c0                EplPdokAddInstance
 .text.EplPdokDelInstance
                0x000193fc       0xdc Debug/EplPdok.o
                0x000193fc                EplPdokDelInstance
 .text.EplPdokAlloc
                0x000194d8      0x290 Debug/EplPdok.o
                0x000194d8                EplPdokAlloc
 .text.EplPdokConfigureChannel
                0x00019768      0x144 Debug/EplPdok.o
                0x00019768                EplPdokConfigureChannel
 .text.EplPdokPdoDecode
                0x000198ac      0x118 Debug/EplPdok.o
                0x000198ac                EplPdokPdoDecode
 .text.EplPdokCbProcessTpdo
                0x000199c4       0x38 Debug/EplPdok.o
 .text.EplPdokPdoEncode
                0x000199fc      0x12c Debug/EplPdok.o
 .text.EplPdokCopyVarToPdo
                0x00019b28      0x144 Debug/EplPdok.o
 .text.EplPdokCopyVarFromPdo
                0x00019c6c      0x154 Debug/EplPdok.o
 .text          0x00019dc0        0x0 Debug/EplPdokCal.o
 .text.EplPdokCalAddInstance
                0x00019dc0       0x28 Debug/EplPdokCal.o
                0x00019dc0                EplPdokCalAddInstance
 .text.EplPdokCalDelInstance
                0x00019de8       0x10 Debug/EplPdokCal.o
                0x00019de8                EplPdokCalDelInstance
 .text.EplPdokCalProcess
                0x00019df8       0x70 Debug/EplPdokCal.o
                0x00019df8                EplPdokCalProcess
 .text.EplPdokCalCbProcessRpdo
                0x00019e68       0x50 Debug/EplPdokCal.o
 .text          0x00019eb8        0x0 Debug/EplPdouCal.o
 .text.EplPdouCalAddInstance
                0x00019eb8       0x10 Debug/EplPdouCal.o
                0x00019eb8                EplPdouCalAddInstance
 .text.EplPdouCalDelInstance
                0x00019ec8       0x10 Debug/EplPdouCal.o
                0x00019ec8                EplPdouCalDelInstance
 .text.EplPdouCalAlloc
                0x00019ed8       0x40 Debug/EplPdouCal.o
                0x00019ed8                EplPdouCalAlloc
 .text.EplPdouCalConfigureChannel
                0x00019f18       0x4c Debug/EplPdouCal.o
                0x00019f18                EplPdouCalConfigureChannel
 .text          0x00019f64        0x0 Debug/EplPdou.o
 .text.EplPdouAddInstance
                0x00019f64       0x44 Debug/EplPdou.o
                0x00019f64                EplPdouAddInstance
 .text.EplPdouDelInstance
                0x00019fa8       0x10 Debug/EplPdou.o
                0x00019fa8                EplPdouDelInstance
 .text.EplPdouCbNmtStateChange
                0x00019fb8       0xa0 Debug/EplPdou.o
                0x00019fb8                EplPdouCbNmtStateChange
 .text.EplPdouCbObdAccess
                0x0001a058      0x11c Debug/EplPdou.o
                0x0001a058                EplPdouCbObdAccess
 .text.EplPdouAlloc
                0x0001a174      0x1ac Debug/EplPdou.o
 .text.EplPdouConfigureAllPdos
                0x0001a320      0x170 Debug/EplPdou.o
 .text.EplPdouCheckAndConfigurePdo
                0x0001a490      0x3e4 Debug/EplPdou.o
 .text.EplPdouConfigureChannel
                0x0001a874       0x34 Debug/EplPdou.o
 .text.EplPdouRxPdoIdToChannelId
                0x0001a8a8       0x20 Debug/EplPdou.o
 .text.EplPdouTxPdoIdToChannelId
                0x0001a8c8       0x18 Debug/EplPdou.o
 .text.EplPdouCheckPdoValidity
                0x0001a8e0       0x74 Debug/EplPdou.o
 .text.EplPdouCheckObjectMapping
                0x0001a954      0x200 Debug/EplPdou.o
 .text.EplPdouDecodeObjectMapping
                0x0001ab54       0x88 Debug/EplPdou.o
 .text          0x0001abdc        0x0 Debug/EplSdoAsndu.o
 .text.EplSdoAsnduInit
                0x0001abdc       0x20 Debug/EplSdoAsndu.o
                0x0001abdc                EplSdoAsnduInit
 .text.EplSdoAsnduAddInstance
                0x0001abfc       0x60 Debug/EplSdoAsndu.o
                0x0001abfc                EplSdoAsnduAddInstance
 .text.EplSdoAsnduDelInstance
                0x0001ac5c       0x2c Debug/EplSdoAsndu.o
                0x0001ac5c                EplSdoAsnduDelInstance
 .text.EplSdoAsnduInitCon
                0x0001ac88       0xb4 Debug/EplSdoAsndu.o
                0x0001ac88                EplSdoAsnduInitCon
 .text.EplSdoAsnduSendData
                0x0001ad3c       0x88 Debug/EplSdoAsndu.o
                0x0001ad3c                EplSdoAsnduSendData
 .text.EplSdoAsnduDelCon
                0x0001adc4       0x44 Debug/EplSdoAsndu.o
                0x0001adc4                EplSdoAsnduDelCon
 .text.EplSdoAsnduCb
                0x0001ae08       0xcc Debug/EplSdoAsndu.o
                0x0001ae08                EplSdoAsnduCb
 .text          0x0001aed4        0x0 Debug/EplSdoAsySequ.o
 .text.EplSdoAsySeqInit
                0x0001aed4       0x24 Debug/EplSdoAsySequ.o
                0x0001aed4                EplSdoAsySeqInit
 .text.EplSdoAsySeqAddInstance
                0x0001aef8       0x98 Debug/EplSdoAsySequ.o
                0x0001aef8                EplSdoAsySeqAddInstance
 .text.EplSdoAsySeqDelInstance
                0x0001af90       0x74 Debug/EplSdoAsySequ.o
                0x0001af90                EplSdoAsySeqDelInstance
 .text.EplSdoAsySeqInitCon
                0x0001b004      0x13c Debug/EplSdoAsySequ.o
                0x0001b004                EplSdoAsySeqInitCon
 .text.EplSdoAsySeqSendData
                0x0001b140       0x7c Debug/EplSdoAsySequ.o
                0x0001b140                EplSdoAsySeqSendData
 .text.EplSdoAsySeqProcessEvent
                0x0001b1bc       0xd0 Debug/EplSdoAsySequ.o
                0x0001b1bc                EplSdoAsySeqProcessEvent
 .text.EplSdoAsySeqDelCon
                0x0001b28c       0xbc Debug/EplSdoAsySequ.o
                0x0001b28c                EplSdoAsySeqDelCon
 .text.EplSdoAsySeqProcess
                0x0001b348      0xdd8 Debug/EplSdoAsySequ.o
 .text.EplSdoAsySeqSendIntern
                0x0001c120       0xd8 Debug/EplSdoAsySequ.o
 .text.EplSdoAsySeqSendLowerLayer
                0x0001c1f8       0x58 Debug/EplSdoAsySequ.o
 .text.EplSdoAsyReceiveCb
                0x0001c250       0xf4 Debug/EplSdoAsySequ.o
                0x0001c250                EplSdoAsyReceiveCb
 .text.EplSdoAsyInitHistory
                0x0001c344       0x54 Debug/EplSdoAsySequ.o
 .text.EplSdoAsyAddFrameToHistory
                0x0001c398       0xb8 Debug/EplSdoAsySequ.o
 .text.EplSdoAsyAckFrameToHistory
                0x0001c450       0xbc Debug/EplSdoAsySequ.o
 .text.EplSdoAsyReadFromHistory
                0x0001c50c       0xb0 Debug/EplSdoAsySequ.o
 .text.EplSdoAsyGetFreeEntriesFromHistory
                0x0001c5bc       0x1c Debug/EplSdoAsySequ.o
 .text.EplSdoAsySeqSetTimer
                0x0001c5d8       0x64 Debug/EplSdoAsySequ.o
 .text          0x0001c63c        0x0 Debug/EplSdoComu.o
 .text.EplSdoComInit
                0x0001c63c       0x1c Debug/EplSdoComu.o
                0x0001c63c                EplSdoComInit
 .text.EplSdoComAddInstance
                0x0001c658       0x44 Debug/EplSdoComu.o
                0x0001c658                EplSdoComAddInstance
 .text.EplSdoComDelInstance
                0x0001c69c       0x20 Debug/EplSdoComu.o
                0x0001c69c                EplSdoComDelInstance
 .text.EplSdoComDefineCon
                0x0001c6bc      0x158 Debug/EplSdoComu.o
                0x0001c6bc                EplSdoComDefineCon
 .text.EplSdoComInitTransferByIndex
                0x0001c814      0x110 Debug/EplSdoComu.o
                0x0001c814                EplSdoComInitTransferByIndex
 .text.EplSdoComUndefineCon
                0x0001c924       0x88 Debug/EplSdoComu.o
                0x0001c924                EplSdoComUndefineCon
 .text.EplSdoComGetState
                0x0001c9ac       0xf8 Debug/EplSdoComu.o
                0x0001c9ac                EplSdoComGetState
 .text.EplSdoComGetNodeId
                0x0001caa4       0x50 Debug/EplSdoComu.o
                0x0001caa4                EplSdoComGetNodeId
 .text.EplSdoComSdoAbort
                0x0001caf4       0x64 Debug/EplSdoComu.o
                0x0001caf4                EplSdoComSdoAbort
 .text.EplSdoComReceiveCb
                0x0001cb58       0x28 Debug/EplSdoComu.o
                0x0001cb58                EplSdoComReceiveCb
 .text.EplSdoComConCb
                0x0001cb80       0x94 Debug/EplSdoComu.o
                0x0001cb80                EplSdoComConCb
 .text.EplSdoComSearchConIntern
                0x0001cc14       0xc8 Debug/EplSdoComu.o
 .text.EplSdoComProcessIntern
                0x0001ccdc      0x998 Debug/EplSdoComu.o
 .text.EplSdoComServerInitReadByIndex
                0x0001d674      0x174 Debug/EplSdoComu.o
 .text.EplSdoComServerSendFrameIntern
                0x0001d7e8      0x500 Debug/EplSdoComu.o
 .text.EplSdoComServerInitWriteByIndex
                0x0001dce8      0x2c0 Debug/EplSdoComu.o
 .text.EplSdoComClientSend
                0x0001dfa8      0x464 Debug/EplSdoComu.o
 .text.EplSdoComClientProcessFrame
                0x0001e40c      0x2b8 Debug/EplSdoComu.o
 .text.EplSdoComClientSendAbort
                0x0001e6c4      0x10c Debug/EplSdoComu.o
 .text.EplSdoComTransferFinished
                0x0001e7d0       0x98 Debug/EplSdoComu.o
 .text          0x0001e868        0x0 Debug/EplSdoUdpu.o
 .text          0x0001e868        0x0 Debug/EplStatusu.o
 .text.EplStatusuInit
                0x0001e868       0x1c Debug/EplStatusu.o
                0x0001e868                EplStatusuInit
 .text.EplStatusuAddInstance
                0x0001e884       0x44 Debug/EplStatusu.o
                0x0001e884                EplStatusuAddInstance
 .text.EplStatusuDelInstance
                0x0001e8c8       0x2c Debug/EplStatusu.o
                0x0001e8c8                EplStatusuDelInstance
 .text.EplStatusuReset
                0x0001e8f4       0x2c Debug/EplStatusu.o
                0x0001e8f4                EplStatusuReset
 .text.EplStatusuRequestStatusResponse
                0x0001e920       0x3c Debug/EplStatusu.o
                0x0001e920                EplStatusuRequestStatusResponse
 .text.EplStatusuCbStatusResponse
                0x0001e95c       0x88 Debug/EplStatusu.o
 .text          0x0001e9e4        0x0 Debug/EplTimeruGeneric.o
 .text.EplTimeruInit
                0x0001e9e4       0x1c Debug/EplTimeruGeneric.o
                0x0001e9e4                EplTimeruInit
 .text.EplTimeruAddInstance
                0x0001ea00       0xf8 Debug/EplTimeruGeneric.o
                0x0001ea00                EplTimeruAddInstance
 .text.EplTimeruDelInstance
                0x0001eaf8       0x60 Debug/EplTimeruGeneric.o
                0x0001eaf8                EplTimeruDelInstance
 .text.EplTimeruProcess
                0x0001eb58       0xe8 Debug/EplTimeruGeneric.o
                0x0001eb58                EplTimeruProcess
 .text.EplTimeruSetTimerMs
                0x0001ec40      0x154 Debug/EplTimeruGeneric.o
                0x0001ec40                EplTimeruSetTimerMs
 .text.EplTimeruModifyTimerMs
                0x0001ed94       0x40 Debug/EplTimeruGeneric.o
                0x0001ed94                EplTimeruModifyTimerMs
 .text.EplTimeruDeleteTimer
                0x0001edd4       0xe4 Debug/EplTimeruGeneric.o
                0x0001edd4                EplTimeruDeleteTimer
 .text.EplTimeruGetMinFreeEntries
                0x0001eeb8       0x18 Debug/EplTimeruGeneric.o
                0x0001eeb8                EplTimeruGetMinFreeEntries
 .text.EplTimeruGetTickCountMs
                0x0001eed0       0x1c Debug/EplTimeruGeneric.o
 .text.EplTimeruEnterCriticalSection
                0x0001eeec       0x14 Debug/EplTimeruGeneric.o
 .text.EplTimeruLeaveCriticalSection
                0x0001ef00       0x14 Debug/EplTimeruGeneric.o
 .text          0x0001ef14        0x0 Debug/EplApiFreeRTOS.o
 .text.EplApiReadLocalObjectFreeRTOS
                0x0001ef14       0xb0 Debug/EplApiFreeRTOS.o
                0x0001ef14                EplApiReadLocalObjectFreeRTOS
 .text.EplApiWriteLocalObjectFreeRTOS
                0x0001efc4       0xa0 Debug/EplApiFreeRTOS.o
                0x0001efc4                EplApiWriteLocalObjectFreeRTOS
 .text.EplApiReadObjectFreeRTOS
                0x0001f064       0xd8 Debug/EplApiFreeRTOS.o
                0x0001f064                EplApiReadObjectFreeRTOS
 .text.EplApiWriteObjectFreeRTOS
                0x0001f13c       0xc8 Debug/EplApiFreeRTOS.o
                0x0001f13c                EplApiWriteObjectFreeRTOS
 .text          0x0001f204        0x0 Debug/Objdict.o
 .text.EplObdInitRam
                0x0001f204       0x54 Debug/Objdict.o
                0x0001f204                EplObdInitRam
 .text          0x0001f258        0x0 Debug/EdrvF107.o
 .text.__enable_irq
                0x0001f258        0xc Debug/EdrvF107.o
 .text.__disable_irq
                0x0001f264        0xc Debug/EdrvF107.o
 .text.__enable_fault_irq
                0x0001f270        0xc Debug/EdrvF107.o
 .text.__disable_fault_irq
                0x0001f27c        0xc Debug/EdrvF107.o
 .text.__NOP    0x0001f288        0xc Debug/EdrvF107.o
 .text.__WFI    0x0001f294        0xc Debug/EdrvF107.o
 .text.__WFE    0x0001f2a0        0xc Debug/EdrvF107.o
 .text.__SEV    0x0001f2ac        0xc Debug/EdrvF107.o
 .text.__ISB    0x0001f2b8       0x10 Debug/EdrvF107.o
 .text.__DSB    0x0001f2c8       0x10 Debug/EdrvF107.o
 .text.__DMB    0x0001f2d8       0x10 Debug/EdrvF107.o
 .text.__CLREX  0x0001f2e8       0x10 Debug/EdrvF107.o
 .text.NVIC_SetPriorityGrouping
                0x0001f2f8       0x58 Debug/EdrvF107.o
 .text.NVIC_GetPriorityGrouping
                0x0001f350       0x20 Debug/EdrvF107.o
 .text.NVIC_EnableIRQ
                0x0001f370       0x38 Debug/EdrvF107.o
 .text.NVIC_DisableIRQ
                0x0001f3a8       0x3c Debug/EdrvF107.o
 .text.NVIC_GetPendingIRQ
                0x0001f3e4       0x48 Debug/EdrvF107.o
 .text.NVIC_SetPendingIRQ
                0x0001f42c       0x3c Debug/EdrvF107.o
 .text.NVIC_ClearPendingIRQ
                0x0001f468       0x3c Debug/EdrvF107.o
 .text.NVIC_GetActive
                0x0001f4a4       0x48 Debug/EdrvF107.o
 .text.NVIC_SetPriority
                0x0001f4ec       0x5c Debug/EdrvF107.o
 .text.NVIC_GetPriority
                0x0001f548       0x58 Debug/EdrvF107.o
 .text.NVIC_EncodePriority
                0x0001f5a0       0x7c Debug/EdrvF107.o
 .text.NVIC_DecodePriority
                0x0001f61c       0x80 Debug/EdrvF107.o
 .text.SysTick_Config
                0x0001f69c       0x64 Debug/EdrvF107.o
 .text.NVIC_SystemReset
                0x0001f700       0x30 Debug/EdrvF107.o
 .text.ITM_SendChar
                0x0001f730       0x6c Debug/EdrvF107.o
 .text.EdrvInit
                0x0001f79c       0x60 Debug/EdrvF107.o
                0x0001f79c                EdrvInit
 .text.EdrvShutdown
                0x0001f7fc       0x18 Debug/EdrvF107.o
                0x0001f7fc                EdrvShutdown
 .text.EdrvDefineRxMacAddrEntry
                0x0001f814       0x18 Debug/EdrvF107.o
                0x0001f814                EdrvDefineRxMacAddrEntry
 .text.EdrvUndefineRxMacAddrEntry
                0x0001f82c       0x24 Debug/EdrvF107.o
                0x0001f82c                EdrvUndefineRxMacAddrEntry
 .text.EdrvAllocTxMsgBuffer
                0x0001f850       0x30 Debug/EdrvF107.o
                0x0001f850                EdrvAllocTxMsgBuffer
 .text.EdrvReleaseTxMsgBuffer
                0x0001f880       0x20 Debug/EdrvF107.o
                0x0001f880                EdrvReleaseTxMsgBuffer
 .text.EdrvSendTxMsg
                0x0001f8a0       0x34 Debug/EdrvF107.o
                0x0001f8a0                EdrvSendTxMsg
 .text.EdrvTxMsgReady
                0x0001f8d4       0x1c Debug/EdrvF107.o
                0x0001f8d4                EdrvTxMsgReady
 .text.EdrvTxMsgStart
                0x0001f8f0       0x1c Debug/EdrvF107.o
                0x0001f8f0                EdrvTxMsgStart
 .text.xEthInitialise
                0x0001f90c      0x258 Debug/EdrvF107.o
 .text.prvSetupEthGPIO
                0x0001fb64       0xe0 Debug/EdrvF107.o
 .text.enableInterrupt
                0x0001fc44       0x30 Debug/EdrvF107.o
                0x0001fc44                enableInterrupt
 .text.disableInterrupt
                0x0001fc74       0x30 Debug/EdrvF107.o
                0x0001fc74                disableInterrupt
 .text.vMAC_ISR
                0x0001fca4       0xb0 Debug/EdrvF107.o
                0x0001fca4                vMAC_ISR
 .text.vReturnBuffer
                0x0001fd54       0x54 Debug/EdrvF107.o
                0x0001fd54                vReturnBuffer
 .text.prvGetNextBuffer
                0x0001fda8       0x7c Debug/EdrvF107.o
                0x0001fda8                prvGetNextBuffer
 .text.MACRx_Handler
                0x0001fe24      0x23c Debug/EdrvF107.o
                0x0001fe24                MACRx_Handler
 .text.MACTx_Handler
                0x00020060       0xdc Debug/EdrvF107.o
                0x00020060                MACTx_Handler
 .text.EdrvChangeFilter
                0x0002013c       0x24 Debug/EdrvF107.o
                0x0002013c                EdrvChangeFilter
 .text          0x00020160        0x0 Debug/STM32Timer.o
 .text.__enable_irq
                0x00020160        0xc Debug/STM32Timer.o
 .text.__disable_irq
                0x0002016c        0xc Debug/STM32Timer.o
 .text.__enable_fault_irq
                0x00020178        0xc Debug/STM32Timer.o
 .text.__disable_fault_irq
                0x00020184        0xc Debug/STM32Timer.o
 .text.__NOP    0x00020190        0xc Debug/STM32Timer.o
 .text.__WFI    0x0002019c        0xc Debug/STM32Timer.o
 .text.__WFE    0x000201a8        0xc Debug/STM32Timer.o
 .text.__SEV    0x000201b4        0xc Debug/STM32Timer.o
 .text.__ISB    0x000201c0       0x10 Debug/STM32Timer.o
 .text.__DSB    0x000201d0       0x10 Debug/STM32Timer.o
 .text.__DMB    0x000201e0       0x10 Debug/STM32Timer.o
 .text.__CLREX  0x000201f0       0x10 Debug/STM32Timer.o
 .text.NVIC_SetPriorityGrouping
                0x00020200       0x58 Debug/STM32Timer.o
 .text.NVIC_GetPriorityGrouping
                0x00020258       0x20 Debug/STM32Timer.o
 .text.NVIC_EnableIRQ
                0x00020278       0x38 Debug/STM32Timer.o
 .text.NVIC_DisableIRQ
                0x000202b0       0x3c Debug/STM32Timer.o
 .text.NVIC_GetPendingIRQ
                0x000202ec       0x48 Debug/STM32Timer.o
 .text.NVIC_SetPendingIRQ
                0x00020334       0x3c Debug/STM32Timer.o
 .text.NVIC_ClearPendingIRQ
                0x00020370       0x3c Debug/STM32Timer.o
 .text.NVIC_GetActive
                0x000203ac       0x48 Debug/STM32Timer.o
 .text.NVIC_SetPriority
                0x000203f4       0x5c Debug/STM32Timer.o
 .text.NVIC_GetPriority
                0x00020450       0x58 Debug/STM32Timer.o
 .text.NVIC_EncodePriority
                0x000204a8       0x7c Debug/STM32Timer.o
 .text.NVIC_DecodePriority
                0x00020524       0x80 Debug/STM32Timer.o
 .text.SysTick_Config
                0x000205a4       0x64 Debug/STM32Timer.o
 .text.NVIC_SystemReset
                0x00020608       0x30 Debug/STM32Timer.o
 .text.ITM_SendChar
                0x00020638       0x6c Debug/STM32Timer.o
 .text.EplTimerHighReskInit
                0x000206a4       0x1c Debug/STM32Timer.o
                0x000206a4                EplTimerHighReskInit
 .text.EplTimerHighReskAddInstance
                0x000206c0       0x94 Debug/STM32Timer.o
                0x000206c0                EplTimerHighReskAddInstance
 .text.EplTimerHighReskDelInstance
                0x00020754       0x5c Debug/STM32Timer.o
                0x00020754                EplTimerHighReskDelInstance
 .text.EplTimerHighReskSetTimerNs
                0x000207b0       0x1c Debug/STM32Timer.o
                0x000207b0                EplTimerHighReskSetTimerNs
 .text.EplTimerHighReskModifyTimerNs
                0x000207cc      0x1a4 Debug/STM32Timer.o
                0x000207cc                EplTimerHighReskModifyTimerNs
 .text.EplTimerHighReskDeleteTimer
                0x00020970       0x64 Debug/STM32Timer.o
                0x00020970                EplTimerHighReskDeleteTimer
 .text.initializeTimer
                0x000209d4      0x118 Debug/STM32Timer.o
                0x000209d4                initializeTimer
 .text.TIM4_IRQHandler
                0x00020aec       0x58 Debug/STM32Timer.o
                0x00020aec                TIM4_IRQHandler
 .text.TIM5_IRQHandler
                0x00020b44       0x58 Debug/STM32Timer.o
                0x00020b44                TIM5_IRQHandler
 .text.interruptFindFactors
                0x00020b9c      0x108 Debug/STM32Timer.o
                0x00020b9c                interruptFindFactors
 .text.EplTgtGetTickCountMs
                0x00020ca4       0x14 Debug/STM32Timer.o
                0x00020ca4                EplTgtGetTickCountMs
 .text          0x00020cb8        0x0 Debug/startup_stm32f10x.o
 .text.Default_Handler
                0x00020cb8        0x4 Debug/startup_stm32f10x.o
                0x00020cb8                EXTI2_IRQHandler
                0x00020cb8                TIM8_TRG_COM_IRQHandler
                0x00020cb8                TIM8_CC_IRQHandler
                0x00020cb8                TIM1_CC_IRQHandler
                0x00020cb8                TIM6_IRQHandler
                0x00020cb8                PVD_IRQHandler
                0x00020cb8                SDIO_IRQHandler
                0x00020cb8                CAN2_RX1_IRQHandler
                0x00020cb8                EXTI3_IRQHandler
                0x00020cb8                EXTI0_IRQHandler
                0x00020cb8                I2C2_EV_IRQHandler
                0x00020cb8                CAN2_SCE_IRQHandler
                0x00020cb8                ADC1_2_IRQHandler
                0x00020cb8                SPI1_IRQHandler
                0x00020cb8                TAMPER_IRQHandler
                0x00020cb8                CAN2_RX0_IRQHandler
                0x00020cb8                TIM8_UP_IRQHandler
                0x00020cb8                DMA2_Channel2_IRQHandler
                0x00020cb8                DMA1_Channel4_IRQHandler
                0x00020cb8                USART3_IRQHandler
                0x00020cb8                RTC_IRQHandler
                0x00020cb8                DMA1_Channel7_IRQHandler
                0x00020cb8                CAN1_RX1_IRQHandler
                0x00020cb8                UART5_IRQHandler
                0x00020cb8                ADC3_IRQHandler
                0x00020cb8                DMA2_Channel1_IRQHandler
                0x00020cb8                I2C1_EV_IRQHandler
                0x00020cb8                DMA1_Channel6_IRQHandler
                0x00020cb8                UART4_IRQHandler
                0x00020cb8                TIM3_IRQHandler
                0x00020cb8                RCC_IRQHandler
                0x00020cb8                TIM1_TRG_COM_IRQHandler
                0x00020cb8                DMA1_Channel1_IRQHandler
                0x00020cb8                Default_Handler
                0x00020cb8                EXTI15_10_IRQHandler
                0x00020cb8                TIM7_IRQHandler
                0x00020cb8                CAN2_TX_IRQHandler
                0x00020cb8                EXTI9_5_IRQHandler
                0x00020cb8                ETH_WKUP_IRQHandler
                0x00020cb8                SPI2_IRQHandler
                0x00020cb8                DMA2_Channel5_IRQHandler
                0x00020cb8                DMA1_Channel5_IRQHandler
                0x00020cb8                EXTI4_IRQHandler
                0x00020cb8                USB_LP_CAN1_RX0_IRQHandler
                0x00020cb8                USB_HP_CAN1_TX_IRQHandler
                0x00020cb8                DMA1_Channel3_IRQHandler
                0x00020cb8                FSMC_IRQHandler
                0x00020cb8                ETH_IRQHandler
                0x00020cb8                TIM1_UP_IRQHandler
                0x00020cb8                WWDG_IRQHandler
                0x00020cb8                TIM2_IRQHandler
                0x00020cb8                TIM1_BRK_IRQHandler
                0x00020cb8                EXTI1_IRQHandler
                0x00020cb8                RTCAlarm_IRQHandler
                0x00020cb8                DMA2_Channel4_5_IRQHandler
                0x00020cb8                USART2_IRQHandler
                0x00020cb8                I2C2_ER_IRQHandler
                0x00020cb8                DMA1_Channel2_IRQHandler
                0x00020cb8                TIM8_BRK_IRQHandler
                0x00020cb8                CAN1_SCE_IRQHandler
                0x00020cb8                FLASH_IRQHandler
                0x00020cb8                USART1_IRQHandler
                0x00020cb8                OTG_FS_IRQHandler
                0x00020cb8                SPI3_IRQHandler
                0x00020cb8                I2C1_ER_IRQHandler
                0x00020cb8                USBWakeUp_IRQHandler
                0x00020cb8                DMA2_Channel3_IRQHandler
 .text.SystemInit_ExtMemCtl_Dummy
                0x00020cbc        0x4 Debug/startup_stm32f10x.o
                0x00020cbc                SystemInit_ExtMemCtl
                0x00020cbc                SystemInit_ExtMemCtl_Dummy
 .text.Reset_Handler
                0x00020cc0       0xb0 Debug/startup_stm32f10x.o
                0x00020cc0                Reset_Handler
 .text          0x00020d70      0x21c c:/program files/codesourcery/sourcery g++ lite/bin/../lib/gcc/arm-none-eabi/4.4.1/thumb2\libgcc.a(_arm_addsubsf3.o)
                0x00020d70                __aeabi_frsub
                0x00020d78                __subsf3
                0x00020d78                __aeabi_fsub
                0x00020d7c                __aeabi_fadd
                0x00020d7c                __addsf3
                0x00020edc                __aeabi_ui2f
                0x00020edc                __floatunsisf
                0x00020ee4                __aeabi_i2f
                0x00020ee4                __floatsisf
                0x00020f00                __aeabi_ul2f
                0x00020f00                __floatundisf
                0x00020f10                __aeabi_l2f
                0x00020f10                __floatdisf
 .text          0x00020f8c      0x2a0 c:/program files/codesourcery/sourcery g++ lite/bin/../lib/gcc/arm-none-eabi/4.4.1/thumb2\libgcc.a(_arm_muldivsf3.o)
                0x00020f8c                __mulsf3
                0x00020f8c                __aeabi_fmul
                0x000210f4                __aeabi_fdiv
                0x000210f4                __divsf3
 .text          0x0002122c       0x4c c:/program files/codesourcery/sourcery g++ lite/bin/../lib/gcc/arm-none-eabi/4.4.1/thumb2\libgcc.a(_arm_fixsfsi.o)
                0x0002122c                __aeabi_f2iz
                0x0002122c                __fixsfsi
 .text          0x00021278       0x4c c:/program files/codesourcery/sourcery g++ lite/bin/../lib/gcc/arm-none-eabi/4.4.1/../../../../arm-none-eabi/lib/thumb2\libc.a(lib_a-assert.o)
                0x00021278                __assert_func
                0x000212bc                __assert
 .text          0x000212c4       0x4c c:/program files/codesourcery/sourcery g++ lite/bin/../lib/gcc/arm-none-eabi/4.4.1/../../../../arm-none-eabi/lib/thumb2\libc.a(lib_a-fiprintf.o)
                0x000212c4                fiprintf
                0x000212f0                _fiprintf_r
 .text          0x00021310        0x0 c:/program files/codesourcery/sourcery g++ lite/bin/../lib/gcc/arm-none-eabi/4.4.1/../../../../arm-none-eabi/lib/thumb2\libc.a(lib_a-impure.o)
 .text          0x00021310      0x190 c:/program files/codesourcery/sourcery g++ lite/bin/../lib/gcc/arm-none-eabi/4.4.1/../../../../arm-none-eabi/lib/thumb2\libc.a(lib_a-memcpy.o)
                0x00021310                memcpy
 .text          0x000214a0       0xd4 c:/program files/codesourcery/sourcery g++ lite/bin/../lib/gcc/arm-none-eabi/4.4.1/../../../../arm-none-eabi/lib/thumb2\libc.a(lib_a-memset.o)
                0x000214a0                memset
 .text          0x00021574       0x64 c:/program files/codesourcery/sourcery g++ lite/bin/../lib/gcc/arm-none-eabi/4.4.1/../../../../arm-none-eabi/lib/thumb2\libc.a(lib_a-printf.o)
                0x00021574                printf
                0x000215ac                _printf_r
 .text          0x000215d8      0x108 c:/program files/codesourcery/sourcery g++ lite/bin/../lib/gcc/arm-none-eabi/4.4.1/../../../../arm-none-eabi/lib/thumb2\libc.a(lib_a-reent.o)
                0x000215d8                _wrapup_reent
                0x00021614                cleanup_glue
                0x0002162c                _reclaim_reent
 .text          0x000216e0       0x60 c:/program files/codesourcery/sourcery g++ lite/bin/../lib/gcc/arm-none-eabi/4.4.1/../../../../arm-none-eabi/lib/thumb2\libc.a(lib_a-strlen.o)
                0x000216e0                strlen
 .text          0x00021740       0x78 c:/program files/codesourcery/sourcery g++ lite/bin/../lib/gcc/arm-none-eabi/4.4.1/../../../../arm-none-eabi/lib/thumb2\libc.a(lib_a-strncpy.o)
                0x00021740                strncpy
 .text          0x000217b8      0xe24 c:/program files/codesourcery/sourcery g++ lite/bin/../lib/gcc/arm-none-eabi/4.4.1/../../../../arm-none-eabi/lib/thumb2\libc.a(lib_a-vfiprintf.o)
                0x000217d4                _vfiprintf_r
                0x000225c0                vfiprintf
 .text          0x000225dc     0x192c c:/program files/codesourcery/sourcery g++ lite/bin/../lib/gcc/arm-none-eabi/4.4.1/../../../../arm-none-eabi/lib/thumb2\libc.a(lib_a-vfprintf.o)
                0x000225f8                _vfprintf_r
                0x00023eec                vfprintf
 .text          0x00023f08      0x108 c:/program files/codesourcery/sourcery g++ lite/bin/../lib/gcc/arm-none-eabi/4.4.1/../../../../arm-none-eabi/lib/thumb2\libc.a(lib_a-wsetup.o)
                0x00023f08                __swsetup_r
 .text          0x00024010        0xc c:/program files/codesourcery/sourcery g++ lite/bin/../lib/gcc/arm-none-eabi/4.4.1/../../../../arm-none-eabi/lib/thumb2\libc.a(lib_a-abort.o)
                0x00024010                abort
 *fill*         0x0002401c        0x4 00
 .text          0x00024020      0xfc0 c:/program files/codesourcery/sourcery g++ lite/bin/../lib/gcc/arm-none-eabi/4.4.1/../../../../arm-none-eabi/lib/thumb2\libc.a(lib_a-dtoa.o)
                0x00024140                _dtoa_r
 .text          0x00024fe0      0x17c c:/program files/codesourcery/sourcery g++ lite/bin/../lib/gcc/arm-none-eabi/4.4.1/../../../../arm-none-eabi/lib/thumb2\libc.a(lib_a-fflush.o)
                0x00024fe0                _fflush_r
                0x0002512c                fflush
 .text          0x0002515c      0x1e0 c:/program files/codesourcery/sourcery g++ lite/bin/../lib/gcc/arm-none-eabi/4.4.1/../../../../arm-none-eabi/lib/thumb2\libc.a(lib_a-findfp.o)
                0x0002515c                __sfp_lock_acquire
                0x00025160                __sfp_lock_release
                0x00025164                __sinit_lock_acquire
                0x00025168                __sinit_lock_release
                0x00025174                __fp_unlock_all
                0x00025190                __fp_lock_all
                0x000251ac                _cleanup_r
                0x000251bc                _cleanup
                0x00025220                __sfmoreglue
                0x00025250                __sfp
                0x000252dc                __sinit
 .text          0x0002533c      0x264 c:/program files/codesourcery/sourcery g++ lite/bin/../lib/gcc/arm-none-eabi/4.4.1/../../../../arm-none-eabi/lib/thumb2\libc.a(lib_a-freer.o)
                0x0002533c                _malloc_trim_r
                0x000253e4                _free_r
 .text          0x000255a0      0x334 c:/program files/codesourcery/sourcery g++ lite/bin/../lib/gcc/arm-none-eabi/4.4.1/../../../../arm-none-eabi/lib/thumb2\libc.a(lib_a-fvwrite.o)
                0x000255a0                __sfvwrite_r
 .text          0x000258d4       0xa8 c:/program files/codesourcery/sourcery g++ lite/bin/../lib/gcc/arm-none-eabi/4.4.1/../../../../arm-none-eabi/lib/thumb2\libc.a(lib_a-fwalk.o)
                0x000258d4                _fwalk_reent
                0x0002592c                _fwalk
 .text          0x0002597c       0x7c c:/program files/codesourcery/sourcery g++ lite/bin/../lib/gcc/arm-none-eabi/4.4.1/../../../../arm-none-eabi/lib/thumb2\libc.a(lib_a-locale.o)
                0x0002597c                __locale_charset
                0x00025988                _localeconv_r
                0x00025990                localeconv
                0x00025998                _setlocale_r
                0x000259e0                setlocale
 .text          0x000259f8       0xdc c:/program files/codesourcery/sourcery g++ lite/bin/../lib/gcc/arm-none-eabi/4.4.1/../../../../arm-none-eabi/lib/thumb2\libc.a(lib_a-makebuf.o)
                0x000259f8                __smakebuf_r
 .text          0x00025ad4       0x28 c:/program files/codesourcery/sourcery g++ lite/bin/../lib/gcc/arm-none-eabi/4.4.1/../../../../arm-none-eabi/lib/thumb2\libc.a(lib_a-malloc.o)
                0x00025ad4                free
                0x00025ae8                malloc
 .text          0x00025afc      0x5a4 c:/program files/codesourcery/sourcery g++ lite/bin/../lib/gcc/arm-none-eabi/4.4.1/../../../../arm-none-eabi/lib/thumb2\libc.a(lib_a-mallocr.o)
                0x00025afc                _malloc_r
 .text          0x000260a0       0x74 c:/program files/codesourcery/sourcery g++ lite/bin/../lib/gcc/arm-none-eabi/4.4.1/../../../../arm-none-eabi/lib/thumb2\libc.a(lib_a-memchr.o)
                0x000260a0                memchr
 .text          0x00026114       0xb8 c:/program files/codesourcery/sourcery g++ lite/bin/../lib/gcc/arm-none-eabi/4.4.1/../../../../arm-none-eabi/lib/thumb2\libc.a(lib_a-memmove.o)
                0x00026114                memmove
 .text          0x000261cc        0x8 c:/program files/codesourcery/sourcery g++ lite/bin/../lib/gcc/arm-none-eabi/4.4.1/../../../../arm-none-eabi/lib/thumb2\libc.a(lib_a-mlock.o)
                0x000261cc                __malloc_lock
                0x000261d0                __malloc_unlock
 .text          0x000261d4      0x968 c:/program files/codesourcery/sourcery g++ lite/bin/../lib/gcc/arm-none-eabi/4.4.1/../../../../arm-none-eabi/lib/thumb2\libc.a(lib_a-mprec.o)
                0x000261d4                __hi0bits
                0x00026214                __lo0bits
                0x00026278                __mcmp
                0x000262b8                __ulp
                0x00026300                __b2d
                0x000263a4                __ratio
                0x00026404                _mprec_log10
                0x00026440                __copybits
                0x00026490                __any_on
                0x000264e8                _Bfree
                0x00026520                _Balloc
                0x00026590                __d2b
                0x00026660                __mdiff
                0x0002675c                __lshift
                0x0002681c                __multiply
                0x00026954                __i2b
                0x00026968                __multadd
                0x000269f4                __pow5mult
                0x00026aa0                __s2b
 .text          0x00026b3c      0x3b4 c:/program files/codesourcery/sourcery g++ lite/bin/../lib/gcc/arm-none-eabi/4.4.1/../../../../arm-none-eabi/lib/thumb2\libc.a(lib_a-reallocr.o)
                0x00026b3c                _realloc_r
 .text          0x00026ef0       0x24 c:/program files/codesourcery/sourcery g++ lite/bin/../lib/gcc/arm-none-eabi/4.4.1/../../../../arm-none-eabi/lib/thumb2\libc.a(lib_a-s_isinfd.o)
                0x00026ef0                __isinfd
 .text          0x00026f14       0x1c c:/program files/codesourcery/sourcery g++ lite/bin/../lib/gcc/arm-none-eabi/4.4.1/../../../../arm-none-eabi/lib/thumb2\libc.a(lib_a-s_isnand.o)
                0x00026f14                __isnand
 .text          0x00026f30       0x28 c:/program files/codesourcery/sourcery g++ lite/bin/../lib/gcc/arm-none-eabi/4.4.1/../../../../arm-none-eabi/lib/thumb2\libc.a(lib_a-sbrkr.o)
                0x00026f30                _sbrk_r
 .text          0x00026f58      0x160 c:/program files/codesourcery/sourcery g++ lite/bin/../lib/gcc/arm-none-eabi/4.4.1/../../../../arm-none-eabi/lib/thumb2\libc.a(lib_a-signal.o)
                0x00026f58                _raise_r
                0x00026fac                raise
                0x00026fc0                _init_signal_r
                0x00026fe8                _init_signal
                0x00026ffc                __sigtramp_r
                0x00027050                __sigtramp
                0x00027064                _signal_r
                0x000270a0                signal
 .text          0x000270b8       0x34 c:/program files/codesourcery/sourcery g++ lite/bin/../lib/gcc/arm-none-eabi/4.4.1/../../../../arm-none-eabi/lib/thumb2\libc.a(lib_a-signalr.o)
                0x000270b8                _getpid_r
                0x000270c0                _kill_r
 .text          0x000270ec       0x90 c:/program files/codesourcery/sourcery g++ lite/bin/../lib/gcc/arm-none-eabi/4.4.1/../../../../arm-none-eabi/lib/thumb2\libc.a(lib_a-stdio.o)
                0x000270ec                __sclose
                0x000270f8                __sseek
                0x00027120                __swrite
                0x00027158                __sread
 .text          0x0002717c      0x1dc c:/program files/codesourcery/sourcery g++ lite/bin/../lib/gcc/arm-none-eabi/4.4.1/../../../../arm-none-eabi/lib/thumb2\libc.a(lib_a-strcmp.o)
                0x0002717c                strcmp
 .text          0x00027358       0x2c c:/program files/codesourcery/sourcery g++ lite/bin/../lib/gcc/arm-none-eabi/4.4.1/../../../../arm-none-eabi/lib/thumb2\libc.a(lib_a-writer.o)
                0x00027358                _write_r
 .text          0x00027384       0x5c c:/program files/codesourcery/sourcery g++ lite/bin/../lib/gcc/arm-none-eabi/4.4.1/../../../../arm-none-eabi/lib/thumb2\libc.a(lib_a-callocr.o)
                0x00027384                _calloc_r
 .text          0x000273e0       0x28 c:/program files/codesourcery/sourcery g++ lite/bin/../lib/gcc/arm-none-eabi/4.4.1/../../../../arm-none-eabi/lib/thumb2\libc.a(lib_a-closer.o)
                0x000273e0                _close_r
 .text          0x00027408       0xcc c:/program files/codesourcery/sourcery g++ lite/bin/../lib/gcc/arm-none-eabi/4.4.1/../../../../arm-none-eabi/lib/thumb2\libc.a(lib_a-fclose.o)
                0x00027408                _fclose_r
                0x000274c0                fclose
 .text          0x000274d4       0x2c c:/program files/codesourcery/sourcery g++ lite/bin/../lib/gcc/arm-none-eabi/4.4.1/../../../../arm-none-eabi/lib/thumb2\libc.a(lib_a-fstatr.o)
                0x000274d4                _fstat_r
 .text          0x00027500       0x28 c:/program files/codesourcery/sourcery g++ lite/bin/../lib/gcc/arm-none-eabi/4.4.1/../../../../arm-none-eabi/lib/thumb2\libc.a(lib_a-isattyr.o)
                0x00027500                _isatty_r
 .text          0x00027528       0x2c c:/program files/codesourcery/sourcery g++ lite/bin/../lib/gcc/arm-none-eabi/4.4.1/../../../../arm-none-eabi/lib/thumb2\libc.a(lib_a-lseekr.o)
                0x00027528                _lseek_r
 .text          0x00027554       0x2c c:/program files/codesourcery/sourcery g++ lite/bin/../lib/gcc/arm-none-eabi/4.4.1/../../../../arm-none-eabi/lib/thumb2\libc.a(lib_a-readr.o)
                0x00027554                _read_r
 .text          0x00027580      0x278 c:/program files/codesourcery/sourcery g++ lite/bin/../lib/gcc/arm-none-eabi/4.4.1/thumb2\libgcc.a(_udivsi3.o)
                0x00027580                __aeabi_uidiv
                0x00027580                __udivsi3
                0x000277dc                __aeabi_uidivmod
 .text          0x000277f8        0x4 c:/program files/codesourcery/sourcery g++ lite/bin/../lib/gcc/arm-none-eabi/4.4.1/thumb2\libgcc.a(_dvmd_tls.o)
                0x000277f8                __aeabi_idiv0
                0x000277f8                __aeabi_ldiv0
 .text          0x000277fc      0x370 c:/program files/codesourcery/sourcery g++ lite/bin/../lib/gcc/arm-none-eabi/4.4.1/thumb2\libgcc.a(_arm_addsubdf3.o)
                0x000277fc                __aeabi_drsub
                0x00027804                __aeabi_dsub
                0x00027804                __subdf3
                0x00027808                __aeabi_dadd
                0x00027808                __adddf3
                0x00027a80                __floatunsidf
                0x00027a80                __aeabi_ui2d
                0x00027aa0                __floatsidf
                0x00027aa0                __aeabi_i2d
                0x00027ac4                __aeabi_f2d
                0x00027ac4                __extendsfdf2
                0x00027b00                __floatundidf
                0x00027b00                __aeabi_ul2d
                0x00027b10                __floatdidf
                0x00027b10                __aeabi_l2d
 .text          0x00027b6c      0x424 c:/program files/codesourcery/sourcery g++ lite/bin/../lib/gcc/arm-none-eabi/4.4.1/thumb2\libgcc.a(_arm_muldivdf3.o)
                0x00027b6c                __aeabi_dmul
                0x00027b6c                __muldf3
                0x00027dc0                __divdf3
                0x00027dc0                __aeabi_ddiv
 .text          0x00027f90      0x110 c:/program files/codesourcery/sourcery g++ lite/bin/../lib/gcc/arm-none-eabi/4.4.1/thumb2\libgcc.a(_arm_cmpdf2.o)
                0x00027f90                __gtdf2
                0x00027f90                __gedf2
                0x00027f98                __ltdf2
                0x00027f98                __ledf2
                0x00027fa0                __nedf2
                0x00027fa0                __eqdf2
                0x00027fa0                __cmpdf2
                0x0002801c                __aeabi_cdrcmple
                0x0002802c                __aeabi_cdcmpeq
                0x0002802c                __aeabi_cdcmple
                0x0002803c                __aeabi_dcmpeq
                0x00028050                __aeabi_dcmplt
                0x00028064                __aeabi_dcmple
                0x00028078                __aeabi_dcmpge
                0x0002808c                __aeabi_dcmpgt
 .text          0x000280a0       0x50 c:/program files/codesourcery/sourcery g++ lite/bin/../lib/gcc/arm-none-eabi/4.4.1/thumb2\libgcc.a(_arm_fixdfsi.o)
                0x000280a0                __aeabi_d2iz
                0x000280a0                __fixdfsi
 .text          0x000280f0       0x2c c:/program files/codesourcery/sourcery g++ lite/bin/../lib/gcc/arm-none-eabi/4.4.1/thumb2\libgcc.a(_aeabi_uldivmod.o)
                0x000280f0                __aeabi_uldivmod
 .text          0x0002811c       0x58 c:/program files/codesourcery/sourcery g++ lite/bin/../lib/gcc/arm-none-eabi/4.4.1/thumb2\libgcc.a(bpabi.o)
                0x0002811c                __gnu_uldivmod_helper
                0x00028148                __gnu_ldivmod_helper
 .text          0x00028174      0x35c c:/program files/codesourcery/sourcery g++ lite/bin/../lib/gcc/arm-none-eabi/4.4.1/thumb2\libgcc.a(_divdi3.o)
                0x00028174                __divdi3
 .text          0x000284d0      0x304 c:/program files/codesourcery/sourcery g++ lite/bin/../lib/gcc/arm-none-eabi/4.4.1/thumb2\libgcc.a(_udivdi3.o)
                0x000284d0                __udivdi3
 *(.rodata .rodata.* .gnu.linkonce.r.*)
 .rodata        0x000287d4        0x8 Debug/main.o
 .rodata        0x000287dc       0x1c Debug/stf_syscalls_minimal.o
 .rodata        0x000287f8        0x8 Debug/ledTask.o
 .rodata.ASCII_Table
                0x00028800     0x11d0 Debug/stm3210c_eval_lcd.o
                0x00028800                ASCII_Table
 .rodata        0x000299d0       0x18 Debug/stm3210c_eval_lcd.o
 .rodata.dwObd_OBK_g
                0x000299e8        0x4 Debug/drvTask.o
 .rodata.xDef0x1000_0x00_g
                0x000299ec        0x4 Debug/drvTask.o
 .rodata.xDef0x1001_0x00_g
                0x000299f0        0x1 Debug/drvTask.o
 *fill*         0x000299f1        0x3 00
 .rodata.xDef0x1006_0x00_g
                0x000299f4        0x4 Debug/drvTask.o
 .rodata        0x000299f8       0x9c Debug/drvTask.o
 .rodata.xDef0x1008_0x00_g
                0x00029a94        0xc Debug/drvTask.o
 .rodata.xDef0x1009_0x00_g
                0x00029aa0        0xc Debug/drvTask.o
 .rodata.xDef0x100A_0x00_g
                0x00029aac        0xc Debug/drvTask.o
 .rodata.xDef0x1018_0x00_g
                0x00029ab8        0x1 Debug/drvTask.o
 *fill*         0x00029ab9        0x3 00
 .rodata.xDef0x1018_0x01_g
                0x00029abc        0x4 Debug/drvTask.o
 .rodata.xDef0x1018_0x02_g
                0x00029ac0        0x4 Debug/drvTask.o
 .rodata.xDef0x1018_0x03_g
                0x00029ac4        0x4 Debug/drvTask.o
 .rodata.xDef0x1018_0x04_g
                0x00029ac8        0x4 Debug/drvTask.o
 .rodata.xDef0x1020_0x00_g
                0x00029acc        0x1 Debug/drvTask.o
 *fill*         0x00029acd        0x3 00
 .rodata.xDef0x1020_0x01_g
                0x00029ad0        0x4 Debug/drvTask.o
 .rodata.xDef0x1020_0x02_g
                0x00029ad4        0x4 Debug/drvTask.o
 .rodata.xDef0x1030_0x00_g
                0x00029ad8        0x1 Debug/drvTask.o
 *fill*         0x00029ad9        0x1 00
 .rodata.xDef0x1030_0x01_g
                0x00029ada        0x2 Debug/drvTask.o
 .rodata.xDef0x1030_0x02_g
                0x00029adc        0xc Debug/drvTask.o
 .rodata.xDef0x1030_0x03_g
                0x00029ae8        0x1 Debug/drvTask.o
 *fill*         0x00029ae9        0x1 00
 .rodata.xDef0x1030_0x04_g
                0x00029aea        0x2 Debug/drvTask.o
 .rodata.xDef0x1030_0x05_g
                0x00029aec        0xc Debug/drvTask.o
 .rodata.xDef0x1030_0x06_g
                0x00029af8        0xc Debug/drvTask.o
 .rodata.xDef0x1030_0x07_g
                0x00029b04        0x1 Debug/drvTask.o
 .rodata.xDef0x1030_0x08_g
                0x00029b05        0x1 Debug/drvTask.o
 .rodata.xDef0x1030_0x09_g
                0x00029b06        0x1 Debug/drvTask.o
 *fill*         0x00029b07        0x1 00
 .rodata.xDef0x1300_0x00_g
                0x00029b08        0x4 Debug/drvTask.o
 .rodata.xDef0x1400_0x00_g
                0x00029b0c        0x1 Debug/drvTask.o
 .rodata.xDef0x1400_0x01_g
                0x00029b0d        0x1 Debug/drvTask.o
 .rodata.xDef0x1400_0x02_g
                0x00029b0e        0x1 Debug/drvTask.o
 .rodata.xDef0x1600_0x00_g
                0x00029b0f        0x1 Debug/drvTask.o
 .rodata.xDef0x1600_0x01_g
                0x00029b10        0x8 Debug/drvTask.o
 .rodata.xDef0x1600_0x02_g
                0x00029b18        0x8 Debug/drvTask.o
 .rodata.xDef0x1800_0x00_g
                0x00029b20        0x1 Debug/drvTask.o
 .rodata.xDef0x1800_0x01_g
                0x00029b21        0x1 Debug/drvTask.o
 .rodata.xDef0x1800_0x02_g
                0x00029b22        0x1 Debug/drvTask.o
 .rodata.xDef0x1A00_0x00_g
                0x00029b23        0x1 Debug/drvTask.o
 *fill*         0x00029b24        0x4 00
 .rodata.xDef0x1A00_0x01_g
                0x00029b28        0x8 Debug/drvTask.o
 .rodata.xDef0x1A00_0x02_g
                0x00029b30        0x8 Debug/drvTask.o
 .rodata.xDef0x1C0B_0x00_g
                0x00029b38        0x1 Debug/drvTask.o
 *fill*         0x00029b39        0x3 00
 .rodata.xDef0x1C0B_0x02_g
                0x00029b3c        0x4 Debug/drvTask.o
 .rodata.xDef0x1C0B_0x03_g
                0x00029b40        0x4 Debug/drvTask.o
 .rodata.xDef0x1C0D_0x00_g
                0x00029b44        0x1 Debug/drvTask.o
 *fill*         0x00029b45        0x3 00
 .rodata.xDef0x1C0D_0x02_g
                0x00029b48        0x4 Debug/drvTask.o
 .rodata.xDef0x1C0D_0x03_g
                0x00029b4c        0x4 Debug/drvTask.o
 .rodata.xDef0x1C0F_0x00_g
                0x00029b50        0x1 Debug/drvTask.o
 *fill*         0x00029b51        0x3 00
 .rodata.xDef0x1C0F_0x02_g
                0x00029b54        0x4 Debug/drvTask.o
 .rodata.xDef0x1C0F_0x03_g
                0x00029b58        0x4 Debug/drvTask.o
 .rodata.xDef0x1C14_0x00_g
                0x00029b5c        0x4 Debug/drvTask.o
 .rodata.xDef0x1F82_0x00_g
                0x00029b60        0x4 Debug/drvTask.o
 .rodata.xDef0x1F83_0x00_g
                0x00029b64        0x1 Debug/drvTask.o
 .rodata.xDef0x1F8C_0x00_g
                0x00029b65        0x1 Debug/drvTask.o
 .rodata.xDef0x1F93_0x00_g
                0x00029b66        0x1 Debug/drvTask.o
 .rodata.xDef0x1F93_0x01_g
                0x00029b67        0x1 Debug/drvTask.o
 .rodata.xDef0x1F93_0x02_g
                0x00029b68        0x1 Debug/drvTask.o
 .rodata.xDef0x1F98_0x00_g
                0x00029b69        0x1 Debug/drvTask.o
 .rodata.xDef0x1F98_0x01_g
                0x00029b6a        0x2 Debug/drvTask.o
 .rodata.xDef0x1F98_0x02_g
                0x00029b6c        0x2 Debug/drvTask.o
 *fill*         0x00029b6e        0x2 00
 .rodata.xDef0x1F98_0x03_g
                0x00029b70        0x4 Debug/drvTask.o
 .rodata.xDef0x1F98_0x04_g
                0x00029b74        0x2 Debug/drvTask.o
 .rodata.xDef0x1F98_0x05_g
                0x00029b76        0x2 Debug/drvTask.o
 .rodata.xDef0x1F98_0x06_g
                0x00029b78        0x4 Debug/drvTask.o
 .rodata.xDef0x1F98_0x07_g
                0x00029b7c        0x1 Debug/drvTask.o
 *fill*         0x00029b7d        0x1 00
 .rodata.xDef0x1F98_0x08_g
                0x00029b7e        0x2 Debug/drvTask.o
 .rodata.xDef0x1F99_0x00_g
                0x00029b80        0x4 Debug/drvTask.o
 .rodata.xDef0x1F9E_0x00_g
                0x00029b84        0x1 Debug/drvTask.o
 .rodata.xDef0x6000_0x00_g
                0x00029b85        0x1 Debug/drvTask.o
 .rodata.xDef0x6000_0x01_g
                0x00029b86        0x1 Debug/drvTask.o
 .rodata.xDef0x6003_0x00_g
                0x00029b87        0x1 Debug/drvTask.o
 .rodata.xDef0x6003_0x01_g
                0x00029b88        0x1 Debug/drvTask.o
 .rodata.xDef0x6200_0x00_g
                0x00029b89        0x1 Debug/drvTask.o
 .rodata.xDef0x6200_0x01_g
                0x00029b8a        0x1 Debug/drvTask.o
 .rodata.xDef0x6203_0x00_g
                0x00029b8b        0x1 Debug/drvTask.o
 .rodata.xDef0x6203_0x01_g
                0x00029b8c        0x1 Debug/drvTask.o
 *fill*         0x00029b8d        0x3 00
 .rodata.uxIO_Pins
                0x00029b90        0x8 Debug/LedHandler.o
 .rodata.BUTTON_PIN
                0x00029b98        0x8 Debug/PushButton.o
                0x00029b98                BUTTON_PIN
 .rodata.BUTTON_CLK
                0x00029ba0        0xc Debug/PushButton.o
                0x00029ba0                BUTTON_CLK
 .rodata.SystemFrequency
                0x00029bac        0x4 Debug/system_stm32f10x.o
                0x00029bac                SystemFrequency
 .rodata.SystemFrequency_SysClk
                0x00029bb0        0x4 Debug/system_stm32f10x.o
                0x00029bb0                SystemFrequency_SysClk
 .rodata.SystemFrequency_AHBClk
                0x00029bb4        0x4 Debug/system_stm32f10x.o
                0x00029bb4                SystemFrequency_AHBClk
 .rodata.SystemFrequency_APB1Clk
                0x00029bb8        0x4 Debug/system_stm32f10x.o
                0x00029bb8                SystemFrequency_APB1Clk
 .rodata.SystemFrequency_APB2Clk
                0x00029bbc        0x4 Debug/system_stm32f10x.o
                0x00029bbc                SystemFrequency_APB2Clk
 .rodata        0x00029bc0        0x8 Debug/tasks.o
 .rodata.ulKernelPriority
                0x00029bc8        0x4 Debug/port.o
                0x00029bc8                ulKernelPriority
 .rodata.heapSTRUCT_SIZE
                0x00029bcc        0x2 Debug/heap_2.o
 *fill*         0x00029bce        0x2 00
 .rodata        0x00029bd0      0x148 Debug/EplObd.o
 .rodata.__FUNCTION__.3986
                0x00029d18       0x1c Debug/EplObd.o
 .rodata.__FUNCTION__.3818
                0x00029d34       0x14 Debug/EplObd.o
 .rodata.__FUNCTION__.3614
                0x00029d48       0x14 Debug/EplObd.o
 .rodata.__FUNCTION__.3553
                0x00029d5c       0x1c Debug/EplObd.o
 .rodata.__FUNCTION__.3362
                0x00029d78       0x14 Debug/EplObd.o
 .rodata.__FUNCTION__.3191
                0x00029d8c       0x10 Debug/EplObd.o
 .rodata.__FUNCTION__.3110
                0x00029d9c       0x10 Debug/EplObd.o
 .rodata        0x00029dac       0x58 Debug/EplSdoComu.o
 .rodata.__FUNCTION__.3708
                0x00029e04       0x14 Debug/EplSdoComu.o
 .rodata.dwObd_OBK_g
                0x00029e18        0x4 Debug/Objdict.o
 .rodata.xDef0x1000_0x00_g
                0x00029e1c        0x4 Debug/Objdict.o
 .rodata.xDef0x1001_0x00_g
                0x00029e20        0x1 Debug/Objdict.o
 *fill*         0x00029e21        0x3 00
 .rodata.xDef0x1006_0x00_g
                0x00029e24        0x4 Debug/Objdict.o
 .rodata        0x00029e28       0x48 Debug/Objdict.o
 .rodata.xDef0x1008_0x00_g
                0x00029e70        0xc Debug/Objdict.o
 .rodata.xDef0x1009_0x00_g
                0x00029e7c        0xc Debug/Objdict.o
 .rodata.xDef0x100A_0x00_g
                0x00029e88        0xc Debug/Objdict.o
 .rodata.xDef0x1018_0x00_g
                0x00029e94        0x1 Debug/Objdict.o
 *fill*         0x00029e95        0x3 00
 .rodata.xDef0x1018_0x01_g
                0x00029e98        0x4 Debug/Objdict.o
 .rodata.xDef0x1018_0x02_g
                0x00029e9c        0x4 Debug/Objdict.o
 .rodata.xDef0x1018_0x03_g
                0x00029ea0        0x4 Debug/Objdict.o
 .rodata.xDef0x1018_0x04_g
                0x00029ea4        0x4 Debug/Objdict.o
 .rodata.xDef0x1020_0x00_g
                0x00029ea8        0x1 Debug/Objdict.o
 *fill*         0x00029ea9        0x3 00
 .rodata.xDef0x1020_0x01_g
                0x00029eac        0x4 Debug/Objdict.o
 .rodata.xDef0x1020_0x02_g
                0x00029eb0        0x4 Debug/Objdict.o
 .rodata.xDef0x1030_0x00_g
                0x00029eb4        0x1 Debug/Objdict.o
 *fill*         0x00029eb5        0x1 00
 .rodata.xDef0x1030_0x01_g
                0x00029eb6        0x2 Debug/Objdict.o
 .rodata.xDef0x1030_0x02_g
                0x00029eb8        0xc Debug/Objdict.o
 .rodata.xDef0x1030_0x03_g
                0x00029ec4        0x1 Debug/Objdict.o
 *fill*         0x00029ec5        0x1 00
 .rodata.xDef0x1030_0x04_g
                0x00029ec6        0x2 Debug/Objdict.o
 .rodata.xDef0x1030_0x05_g
                0x00029ec8        0xc Debug/Objdict.o
 .rodata.xDef0x1030_0x06_g
                0x00029ed4        0xc Debug/Objdict.o
 .rodata.xDef0x1030_0x07_g
                0x00029ee0        0x1 Debug/Objdict.o
 .rodata.xDef0x1030_0x08_g
                0x00029ee1        0x1 Debug/Objdict.o
 .rodata.xDef0x1030_0x09_g
                0x00029ee2        0x1 Debug/Objdict.o
 *fill*         0x00029ee3        0x1 00
 .rodata.xDef0x1300_0x00_g
                0x00029ee4        0x4 Debug/Objdict.o
 .rodata.xDef0x1400_0x00_g
                0x00029ee8        0x1 Debug/Objdict.o
 .rodata.xDef0x1400_0x01_g
                0x00029ee9        0x1 Debug/Objdict.o
 .rodata.xDef0x1400_0x02_g
                0x00029eea        0x1 Debug/Objdict.o
 .rodata.xDef0x1600_0x00_g
                0x00029eeb        0x1 Debug/Objdict.o
 *fill*         0x00029eec        0x4 00
 .rodata.xDef0x1600_0x01_g
                0x00029ef0        0x8 Debug/Objdict.o
 .rodata.xDef0x1600_0x02_g
                0x00029ef8        0x8 Debug/Objdict.o
 .rodata.xDef0x1800_0x00_g
                0x00029f00        0x1 Debug/Objdict.o
 .rodata.xDef0x1800_0x01_g
                0x00029f01        0x1 Debug/Objdict.o
 .rodata.xDef0x1800_0x02_g
                0x00029f02        0x1 Debug/Objdict.o
 .rodata.xDef0x1A00_0x00_g
                0x00029f03        0x1 Debug/Objdict.o
 *fill*         0x00029f04        0x4 00
 .rodata.xDef0x1A00_0x01_g
                0x00029f08        0x8 Debug/Objdict.o
 .rodata.xDef0x1A00_0x02_g
                0x00029f10        0x8 Debug/Objdict.o
 .rodata.xDef0x1C0B_0x00_g
                0x00029f18        0x1 Debug/Objdict.o
 *fill*         0x00029f19        0x3 00
 .rodata.xDef0x1C0B_0x02_g
                0x00029f1c        0x4 Debug/Objdict.o
 .rodata.xDef0x1C0B_0x03_g
                0x00029f20        0x4 Debug/Objdict.o
 .rodata.xDef0x1C0D_0x00_g
                0x00029f24        0x1 Debug/Objdict.o
 *fill*         0x00029f25        0x3 00
 .rodata.xDef0x1C0D_0x02_g
                0x00029f28        0x4 Debug/Objdict.o
 .rodata.xDef0x1C0D_0x03_g
                0x00029f2c        0x4 Debug/Objdict.o
 .rodata.xDef0x1C0F_0x00_g
                0x00029f30        0x1 Debug/Objdict.o
 *fill*         0x00029f31        0x3 00
 .rodata.xDef0x1C0F_0x02_g
                0x00029f34        0x4 Debug/Objdict.o
 .rodata.xDef0x1C0F_0x03_g
                0x00029f38        0x4 Debug/Objdict.o
 .rodata.xDef0x1C14_0x00_g
                0x00029f3c        0x4 Debug/Objdict.o
 .rodata.xDef0x1F82_0x00_g
                0x00029f40        0x4 Debug/Objdict.o
 .rodata.xDef0x1F83_0x00_g
                0x00029f44        0x1 Debug/Objdict.o
 .rodata.xDef0x1F8C_0x00_g
                0x00029f45        0x1 Debug/Objdict.o
 .rodata.xDef0x1F93_0x00_g
                0x00029f46        0x1 Debug/Objdict.o
 .rodata.xDef0x1F93_0x01_g
                0x00029f47        0x1 Debug/Objdict.o
 .rodata.xDef0x1F93_0x02_g
                0x00029f48        0x1 Debug/Objdict.o
 .rodata.xDef0x1F98_0x00_g
                0x00029f49        0x1 Debug/Objdict.o
 .rodata.xDef0x1F98_0x01_g
                0x00029f4a        0x2 Debug/Objdict.o
 .rodata.xDef0x1F98_0x02_g
                0x00029f4c        0x2 Debug/Objdict.o
 *fill*         0x00029f4e        0x2 00
 .rodata.xDef0x1F98_0x03_g
                0x00029f50        0x4 Debug/Objdict.o
 .rodata.xDef0x1F98_0x04_g
                0x00029f54        0x2 Debug/Objdict.o
 .rodata.xDef0x1F98_0x05_g
                0x00029f56        0x2 Debug/Objdict.o
 .rodata.xDef0x1F98_0x06_g
                0x00029f58        0x4 Debug/Objdict.o
 .rodata.xDef0x1F98_0x07_g
                0x00029f5c        0x1 Debug/Objdict.o
 *fill*         0x00029f5d        0x1 00
 .rodata.xDef0x1F98_0x08_g
                0x00029f5e        0x2 Debug/Objdict.o
 .rodata.xDef0x1F99_0x00_g
                0x00029f60        0x4 Debug/Objdict.o
 .rodata.xDef0x1F9E_0x00_g
                0x00029f64        0x1 Debug/Objdict.o
 .rodata.xDef0x6000_0x00_g
                0x00029f65        0x1 Debug/Objdict.o
 .rodata.xDef0x6000_0x01_g
                0x00029f66        0x1 Debug/Objdict.o
 .rodata.xDef0x6003_0x00_g
                0x00029f67        0x1 Debug/Objdict.o
 .rodata.xDef0x6003_0x01_g
                0x00029f68        0x1 Debug/Objdict.o
 .rodata.xDef0x6200_0x00_g
                0x00029f69        0x1 Debug/Objdict.o
 .rodata.xDef0x6200_0x01_g
                0x00029f6a        0x1 Debug/Objdict.o
 .rodata.xDef0x6203_0x00_g
                0x00029f6b        0x1 Debug/Objdict.o
 .rodata.xDef0x6203_0x01_g
                0x00029f6c        0x1 Debug/Objdict.o
 *fill*         0x00029f6d        0x3 00
 .rodata.str1.4
                0x00029f70       0x3f c:/program files/codesourcery/sourcery g++ lite/bin/../lib/gcc/arm-none-eabi/4.4.1/../../../../arm-none-eabi/lib/thumb2\libc.a(lib_a-assert.o)
                                 0x44 (size before relaxing)
 *fill*         0x00029faf        0x1 00
 .rodata        0x00029fb0        0x4 c:/program files/codesourcery/sourcery g++ lite/bin/../lib/gcc/arm-none-eabi/4.4.1/../../../../arm-none-eabi/lib/thumb2\libc.a(lib_a-impure.o)
                0x00029fb0                _global_impure_ptr
 .rodata.str1.4
                0x00029fb4        0x2 c:/program files/codesourcery/sourcery g++ lite/bin/../lib/gcc/arm-none-eabi/4.4.1/../../../../arm-none-eabi/lib/thumb2\libc.a(lib_a-impure.o)
                                  0x4 (size before relaxing)
 *fill*         0x00029fb6        0x2 00
 .rodata        0x00029fb8       0x20 c:/program files/codesourcery/sourcery g++ lite/bin/../lib/gcc/arm-none-eabi/4.4.1/../../../../arm-none-eabi/lib/thumb2\libc.a(lib_a-vfiprintf.o)
 .rodata.str1.4
                0x00029fd8       0x2f c:/program files/codesourcery/sourcery g++ lite/bin/../lib/gcc/arm-none-eabi/4.4.1/../../../../arm-none-eabi/lib/thumb2\libc.a(lib_a-vfiprintf.o)
                                 0x30 (size before relaxing)
 *fill*         0x0002a007        0x1 00
 .rodata        0x0002a008       0x20 c:/program files/codesourcery/sourcery g++ lite/bin/../lib/gcc/arm-none-eabi/4.4.1/../../../../arm-none-eabi/lib/thumb2\libc.a(lib_a-vfprintf.o)
 .rodata.str1.4
                0x0002a028       0x12 c:/program files/codesourcery/sourcery g++ lite/bin/../lib/gcc/arm-none-eabi/4.4.1/../../../../arm-none-eabi/lib/thumb2\libc.a(lib_a-vfprintf.o)
                                 0x44 (size before relaxing)
 *fill*         0x0002a03a        0x2 00
 .rodata.str1.4
                0x0002a03c       0x10 c:/program files/codesourcery/sourcery g++ lite/bin/../lib/gcc/arm-none-eabi/4.4.1/../../../../arm-none-eabi/lib/thumb2\libc.a(lib_a-dtoa.o)
                                 0x14 (size before relaxing)
 .rodata        0x0002a04c       0x60 c:/program files/codesourcery/sourcery g++ lite/bin/../lib/gcc/arm-none-eabi/4.4.1/../../../../arm-none-eabi/lib/thumb2\libc.a(lib_a-findfp.o)
                0x0002a04c                __sf_fake_stdin
                0x0002a06c                __sf_fake_stdout
                0x0002a08c                __sf_fake_stderr
 .rodata        0x0002a0ac       0x34 c:/program files/codesourcery/sourcery g++ lite/bin/../lib/gcc/arm-none-eabi/4.4.1/../../../../arm-none-eabi/lib/thumb2\libc.a(lib_a-locale.o)
 .rodata.str1.4
                0x0002a0e0       0x10 c:/program files/codesourcery/sourcery g++ lite/bin/../lib/gcc/arm-none-eabi/4.4.1/../../../../arm-none-eabi/lib/thumb2\libc.a(lib_a-locale.o)
                                 0x18 (size before relaxing)
 .rodata        0x0002a0f0      0x128 c:/program files/codesourcery/sourcery g++ lite/bin/../lib/gcc/arm-none-eabi/4.4.1/../../../../arm-none-eabi/lib/thumb2\libc.a(lib_a-mprec.o)
                0x0002a0f0                __mprec_tens
                0x0002a1c8                __mprec_bigtens
                0x0002a1f0                __mprec_tinytens
 *(.eh_frame_hdr)
 *(.eh_frame)
 *(.ARM.extab* .gnu.linkonce.armextab.*)
 .ARM.extab     0x0002a218        0x0 c:/program files/codesourcery/sourcery g++ lite/bin/../lib/gcc/arm-none-eabi/4.4.1/thumb2\libgcc.a(_divdi3.o)
 .ARM.extab     0x0002a218        0x0 c:/program files/codesourcery/sourcery g++ lite/bin/../lib/gcc/arm-none-eabi/4.4.1/thumb2\libgcc.a(_udivdi3.o)
 *(.gcc_except_table)
 *(.eh_frame_hdr)
 *(.eh_frame)
                0x0002a218                . = ALIGN (0x4)
 *(.init)
                0x0002a218                . = ALIGN (0x4)
                0x0002a218                __preinit_array_start = .
 *(.preinit_array)
                0x0002a218                __preinit_array_end = .
                0x0002a218                . = ALIGN (0x4)
                0x0002a218                __init_array_start = .
 *(SORT(.init_array.*))
 *(.init_array)
                0x0002a218                __init_array_end = .
                0x0002a218                . = ALIGN (0x4)
 *crtbegin.o(.ctors)
 *(EXCLUDE_FILE(*crtend.o) .ctors)
 *(SORT(.ctors.*))
 *crtend.o(.ctors)
                0x0002a218                . = ALIGN (0x4)
 *(.fini)
                0x0002a218                . = ALIGN (0x4)
                0x0002a218                __fini_array_start = .
 *(.fini_array)
 *(SORT(.fini_array.*))
                0x0002a218                __fini_array_end = .
 *crtbegin.o(.dtors)
 *(EXCLUDE_FILE(*crtend.o) .dtors)
 *(SORT(.dtors.*))
 *crtend.o(.dtors)
                0x0002a218                . = ALIGN (0x8)
                0x0002a218                _etext = .
                0x0002a218                __exidx_start = .

.glue_7         0x0002a218        0x0
 .glue_7        0x00000000        0x0 linker stubs

.glue_7t        0x0002a218        0x0
 .glue_7t       0x00000000        0x0 linker stubs

.vfp11_veneer   0x0002a218        0x0
 .vfp11_veneer  0x00000000        0x0 linker stubs

.v4_bx          0x0002a218        0x0
 .v4_bx         0x00000000        0x0 linker stubs

.ARM.exidx      0x0002a218        0x8
 *(.ARM.exidx* .gnu.linkonce.armexidx.*)
 .ARM.exidx     0x0002a218        0x8 c:/program files/codesourcery/sourcery g++ lite/bin/../lib/gcc/arm-none-eabi/4.4.1/thumb2\libgcc.a(_divdi3.o)
 .ARM.exidx     0x0002a220        0x0 c:/program files/codesourcery/sourcery g++ lite/bin/../lib/gcc/arm-none-eabi/4.4.1/thumb2\libgcc.a(_udivdi3.o)
                                  0x8 (size before relaxing)
                0x0002a220                __exidx_end = .
                0x0002a220                _flash_data = .

.data           0x20000000     0x1670 load address 0x0002a220
                0x20000000                _data = .
 *(vtable)
 *(.data*)
 .data          0x20000000        0x0 Debug/main.o
 .data.abMacAddr
                0x20000000        0x8 Debug/main.o
 .data          0x20000008        0x0 Debug/stm32f10x_it.o
 .data          0x20000008        0x0 Debug/stf_syscalls_minimal.o
 .data.__environ
                0x20000008        0x4 Debug/stf_syscalls_minimal.o
                0x20000008                __environ
 .data          0x2000000c        0x0 Debug/ledTask.o
 .data          0x2000000c        0x0 Debug/stm3210c_eval_lcd.o
 .data.BackColor
                0x2000000c        0x2 Debug/stm3210c_eval_lcd.o
 .data          0x2000000e        0x0 Debug/drvTask.o
 *fill*         0x2000000e        0x2 00
 .data.abMacAddr
                0x20000010        0x8 Debug/drvTask.o
 .data.aObdSubEntry0x1000Ram_g
                0x20000018       0x14 Debug/drvTask.o
 .data.aObdSubEntry0x1001Ram_g
                0x2000002c       0x14 Debug/drvTask.o
 .data.aObdSubEntry0x1006Ram_g
                0x20000040       0x14 Debug/drvTask.o
 .data.aObdSubEntry0x1008Ram_g
                0x20000054       0x14 Debug/drvTask.o
 .data.aObdSubEntry0x1009Ram_g
                0x20000068       0x14 Debug/drvTask.o
 .data.aObdSubEntry0x100ARam_g
                0x2000007c       0x14 Debug/drvTask.o
 .data.aObdSubEntry0x1018Ram_g
                0x20000090       0x64 Debug/drvTask.o
 .data.aObdSubEntry0x1020Ram_g
                0x200000f4       0x3c Debug/drvTask.o
 .data.aObdSubEntry0x1030Ram_g
                0x20000130       0xc8 Debug/drvTask.o
 .data.aObdSubEntry0x1300Ram_g
                0x200001f8       0x14 Debug/drvTask.o
 .data.aObdSubEntry0x1400Ram_g
                0x2000020c       0x3c Debug/drvTask.o
 .data.aObdSubEntry0x1600Ram_g
                0x20000248       0x3c Debug/drvTask.o
 .data.aObdSubEntry0x1800Ram_g
                0x20000284       0x3c Debug/drvTask.o
 .data.aObdSubEntry0x1A00Ram_g
                0x200002c0       0x3c Debug/drvTask.o
 .data.aObdSubEntry0x1C0BRam_g
                0x200002fc       0x50 Debug/drvTask.o
 .data.aObdSubEntry0x1C0DRam_g
                0x2000034c       0x50 Debug/drvTask.o
 .data.aObdSubEntry0x1C0FRam_g
                0x2000039c       0x50 Debug/drvTask.o
 .data.aObdSubEntry0x1C14Ram_g
                0x200003ec       0x14 Debug/drvTask.o
 .data.aObdSubEntry0x1F82Ram_g
                0x20000400       0x14 Debug/drvTask.o
 .data.aObdSubEntry0x1F83Ram_g
                0x20000414       0x14 Debug/drvTask.o
 .data.aObdSubEntry0x1F8CRam_g
                0x20000428       0x14 Debug/drvTask.o
 .data.aObdSubEntry0x1F93Ram_g
                0x2000043c       0x3c Debug/drvTask.o
 .data.aObdSubEntry0x1F98Ram_g
                0x20000478       0xb4 Debug/drvTask.o
 .data.aObdSubEntry0x1F99Ram_g
                0x2000052c       0x14 Debug/drvTask.o
 .data.aObdSubEntry0x1F9ERam_g
                0x20000540       0x14 Debug/drvTask.o
 .data.aObdSubEntry0x6000Ram_g
                0x20000554       0x28 Debug/drvTask.o
 .data.aObdSubEntry0x6003Ram_g
                0x2000057c       0x28 Debug/drvTask.o
 .data.aObdSubEntry0x6100Ram_g
                0x200005a4       0x14 Debug/drvTask.o
 .data.aObdSubEntry0x6200Ram_g
                0x200005b8       0x28 Debug/drvTask.o
 .data.aObdSubEntry0x6203Ram_g
                0x200005e0       0x28 Debug/drvTask.o
 .data.aObdTabGeneric_g
                0x20000608      0x1a0 Debug/drvTask.o
 .data.aObdTabManufacturer_g
                0x200007a8       0x10 Debug/drvTask.o
 .data.aObdTabDevice_g
                0x200007b8       0x60 Debug/drvTask.o
 .data.a        0x20000818        0x4 Debug/drvTask.o
 .data.c        0x2000081c        0x4 Debug/drvTask.o
 .data          0x20000820        0x0 Debug/debugging.o
 .data          0x20000820        0x0 Debug/LedHandler.o
 .data          0x20000820        0x0 Debug/PushButton.o
 .data.BUTTON_PORT
                0x20000820        0xc Debug/PushButton.o
                0x20000820                BUTTON_PORT
 .data          0x2000082c        0x0 Debug/core_cm3.o
 .data          0x2000082c        0x0 Debug/system_stm32f10x.o
 .data          0x2000082c        0x0 Debug/misc.o
 .data          0x2000082c        0x0 Debug/stm32f10x_rcc.o
 .data.APBAHBPrescTable
                0x2000082c       0x10 Debug/stm32f10x_rcc.o
 .data.ADCPrescTable
                0x2000083c        0x4 Debug/stm32f10x_rcc.o
 .data          0x20000840        0x0 Debug/stm32f10x_flash.o
 .data          0x20000840        0x0 Debug/stm32f10x_gpio.o
 .data          0x20000840        0x0 Debug/stm32f10x_tim.o
 .data          0x20000840        0x0 Debug/stm32f10x_spi.o
 .data          0x20000840        0x0 Debug/stm32_eth.o
 .data          0x20000840        0x0 Debug/list.o
 .data          0x20000840        0x0 Debug/queue.o
 .data          0x20000840        0x0 Debug/tasks.o
 .data          0x20000840        0x0 Debug/port.o
 .data.uxCriticalNesting
                0x20000840        0x4 Debug/port.o
 .data          0x20000844        0x0 Debug/heap_2.o
 .data          0x20000844        0x0 Debug/amiarm.o
 .data.abMacAddr
                0x20000844        0x8 Debug/amiarm.o
 .data          0x2000084c        0x0 Debug/EplApiGeneric.o
 .data.abMacAddr
                0x2000084c        0x8 Debug/EplApiGeneric.o
 .data          0x20000854        0x0 Debug/EplApiProcessImage.o
 .data.abMacAddr
                0x20000854        0x8 Debug/EplApiProcessImage.o
 .data          0x2000085c        0x0 Debug/EplDllk.o
 .data.abMacAddr
                0x2000085c        0x8 Debug/EplDllk.o
 .data          0x20000864        0x0 Debug/EplDllkCal.o
 .data.abMacAddr
                0x20000864        0x8 Debug/EplDllkCal.o
 .data          0x2000086c        0x0 Debug/EplDlluCal.o
 .data.abMacAddr
                0x2000086c        0x8 Debug/EplDlluCal.o
 .data          0x20000874        0x0 Debug/EplErrorHandlerk.o
 .data.abMacAddr
                0x20000874        0x8 Debug/EplErrorHandlerk.o
 .data          0x2000087c        0x0 Debug/EplEventk.o
 .data.abMacAddr
                0x2000087c        0x8 Debug/EplEventk.o
 .data          0x20000884        0x0 Debug/EplEventu.o
 .data.abMacAddr
                0x20000884        0x8 Debug/EplEventu.o
 .data          0x2000088c        0x0 Debug/EplIdentu.o
 .data.abMacAddr
                0x2000088c        0x8 Debug/EplIdentu.o
 .data          0x20000894        0x0 Debug/EplLedu.o
 .data.abMacAddr
                0x20000894        0x8 Debug/EplLedu.o
 .data          0x2000089c        0x0 Debug/EplNmtCnu.o
 .data.abMacAddr
                0x2000089c        0x8 Debug/EplNmtCnu.o
 .data          0x200008a4        0x0 Debug/EplNmtk.o
 .data.abMacAddr
                0x200008a4        0x8 Debug/EplNmtk.o
 .data          0x200008ac        0x0 Debug/EplNmtkCal.o
 .data.abMacAddr
                0x200008ac        0x8 Debug/EplNmtkCal.o
 .data          0x200008b4        0x0 Debug/EplNmtMnu.o
 .data.abMacAddr
                0x200008b4        0x8 Debug/EplNmtMnu.o
 .data          0x200008bc        0x0 Debug/EplNmtu.o
 .data.abMacAddr
                0x200008bc        0x8 Debug/EplNmtu.o
 .data          0x200008c4        0x0 Debug/EplNmtuCal.o
 .data.abMacAddr
                0x200008c4        0x8 Debug/EplNmtuCal.o
 .data          0x200008cc        0x0 Debug/EplObd.o
 .data.abMacAddr
                0x200008cc        0x8 Debug/EplObd.o
 .data          0x200008d4        0x0 Debug/EplObdkCal.o
 .data.abMacAddr
                0x200008d4        0x8 Debug/EplObdkCal.o
 .data          0x200008dc        0x0 Debug/EplObdu.o
 .data.abMacAddr
                0x200008dc        0x8 Debug/EplObdu.o
 .data          0x200008e4        0x0 Debug/EplObduCal.o
 .data.abMacAddr
                0x200008e4        0x8 Debug/EplObduCal.o
 .data          0x200008ec        0x0 Debug/EplPdok.o
 .data.abMacAddr
                0x200008ec        0x8 Debug/EplPdok.o
 .data          0x200008f4        0x0 Debug/EplPdokCal.o
 .data.abMacAddr
                0x200008f4        0x8 Debug/EplPdokCal.o
 .data          0x200008fc        0x0 Debug/EplPdouCal.o
 .data.abMacAddr
                0x200008fc        0x8 Debug/EplPdouCal.o
 .data          0x20000904        0x0 Debug/EplPdou.o
 .data.abMacAddr
                0x20000904        0x8 Debug/EplPdou.o
 .data          0x2000090c        0x0 Debug/EplSdoAsndu.o
 .data.abMacAddr
                0x2000090c        0x8 Debug/EplSdoAsndu.o
 .data          0x20000914        0x0 Debug/EplSdoAsySequ.o
 .data.abMacAddr
                0x20000914        0x8 Debug/EplSdoAsySequ.o
 .data          0x2000091c        0x0 Debug/EplSdoComu.o
 .data.abMacAddr
                0x2000091c        0x8 Debug/EplSdoComu.o
 .data          0x20000924        0x0 Debug/EplSdoUdpu.o
 .data.abMacAddr
                0x20000924        0x8 Debug/EplSdoUdpu.o
 .data          0x2000092c        0x0 Debug/EplStatusu.o
 .data.abMacAddr
                0x2000092c        0x8 Debug/EplStatusu.o
 .data          0x20000934        0x0 Debug/EplTimeruGeneric.o
 .data.abMacAddr
                0x20000934        0x8 Debug/EplTimeruGeneric.o
 .data          0x2000093c        0x0 Debug/EplApiFreeRTOS.o
 .data.abMacAddr
                0x2000093c        0x8 Debug/EplApiFreeRTOS.o
 .data          0x20000944        0x0 Debug/Objdict.o
 .data.abMacAddr
                0x20000944        0x8 Debug/Objdict.o
 .data.aObdSubEntry0x1000Ram_g
                0x2000094c       0x14 Debug/Objdict.o
 .data.aObdSubEntry0x1001Ram_g
                0x20000960       0x14 Debug/Objdict.o
 .data.aObdSubEntry0x1006Ram_g
                0x20000974       0x14 Debug/Objdict.o
 .data.aObdSubEntry0x1008Ram_g
                0x20000988       0x14 Debug/Objdict.o
 .data.aObdSubEntry0x1009Ram_g
                0x2000099c       0x14 Debug/Objdict.o
 .data.aObdSubEntry0x100ARam_g
                0x200009b0       0x14 Debug/Objdict.o
 .data.aObdSubEntry0x1018Ram_g
                0x200009c4       0x64 Debug/Objdict.o
 .data.aObdSubEntry0x1020Ram_g
                0x20000a28       0x3c Debug/Objdict.o
 .data.aObdSubEntry0x1030Ram_g
                0x20000a64       0xc8 Debug/Objdict.o
 .data.aObdSubEntry0x1300Ram_g
                0x20000b2c       0x14 Debug/Objdict.o
 .data.aObdSubEntry0x1400Ram_g
                0x20000b40       0x3c Debug/Objdict.o
 .data.aObdSubEntry0x1600Ram_g
                0x20000b7c       0x3c Debug/Objdict.o
 .data.aObdSubEntry0x1800Ram_g
                0x20000bb8       0x3c Debug/Objdict.o
 .data.aObdSubEntry0x1A00Ram_g
                0x20000bf4       0x3c Debug/Objdict.o
 .data.aObdSubEntry0x1C0BRam_g
                0x20000c30       0x50 Debug/Objdict.o
 .data.aObdSubEntry0x1C0DRam_g
                0x20000c80       0x50 Debug/Objdict.o
 .data.aObdSubEntry0x1C0FRam_g
                0x20000cd0       0x50 Debug/Objdict.o
 .data.aObdSubEntry0x1C14Ram_g
                0x20000d20       0x14 Debug/Objdict.o
 .data.aObdSubEntry0x1F82Ram_g
                0x20000d34       0x14 Debug/Objdict.o
 .data.aObdSubEntry0x1F83Ram_g
                0x20000d48       0x14 Debug/Objdict.o
 .data.aObdSubEntry0x1F8CRam_g
                0x20000d5c       0x14 Debug/Objdict.o
 .data.aObdSubEntry0x1F93Ram_g
                0x20000d70       0x3c Debug/Objdict.o
 .data.aObdSubEntry0x1F98Ram_g
                0x20000dac       0xb4 Debug/Objdict.o
 .data.aObdSubEntry0x1F99Ram_g
                0x20000e60       0x14 Debug/Objdict.o
 .data.aObdSubEntry0x1F9ERam_g
                0x20000e74       0x14 Debug/Objdict.o
 .data.aObdSubEntry0x6000Ram_g
                0x20000e88       0x28 Debug/Objdict.o
 .data.aObdSubEntry0x6003Ram_g
                0x20000eb0       0x28 Debug/Objdict.o
 .data.aObdSubEntry0x6100Ram_g
                0x20000ed8       0x14 Debug/Objdict.o
 .data.aObdSubEntry0x6200Ram_g
                0x20000eec       0x28 Debug/Objdict.o
 .data.aObdSubEntry0x6203Ram_g
                0x20000f14       0x28 Debug/Objdict.o
 .data.aObdTabGeneric_g
                0x20000f3c      0x1a0 Debug/Objdict.o
 .data.aObdTabManufacturer_g
                0x200010dc       0x10 Debug/Objdict.o
 .data.aObdTabDevice_g
                0x200010ec       0x60 Debug/Objdict.o
 .data          0x2000114c        0x0 Debug/EdrvF107.o
 .data.abMacAddr
                0x2000114c        0x8 Debug/EdrvF107.o
 .data          0x20001154        0x0 Debug/STM32Timer.o
 .data.abMacAddr
                0x20001154        0x8 Debug/STM32Timer.o
 .data          0x2000115c        0x0 Debug/startup_stm32f10x.o
 .data          0x2000115c        0x0 c:/program files/codesourcery/sourcery g++ lite/bin/../lib/gcc/arm-none-eabi/4.4.1/thumb2\libgcc.a(_arm_addsubsf3.o)
 .data          0x2000115c        0x0 c:/program files/codesourcery/sourcery g++ lite/bin/../lib/gcc/arm-none-eabi/4.4.1/thumb2\libgcc.a(_arm_muldivsf3.o)
 .data          0x2000115c        0x0 c:/program files/codesourcery/sourcery g++ lite/bin/../lib/gcc/arm-none-eabi/4.4.1/thumb2\libgcc.a(_arm_fixsfsi.o)
 .data          0x2000115c        0x0 c:/program files/codesourcery/sourcery g++ lite/bin/../lib/gcc/arm-none-eabi/4.4.1/../../../../arm-none-eabi/lib/thumb2\libc.a(lib_a-assert.o)
 .data          0x2000115c        0x0 c:/program files/codesourcery/sourcery g++ lite/bin/../lib/gcc/arm-none-eabi/4.4.1/../../../../arm-none-eabi/lib/thumb2\libc.a(lib_a-fiprintf.o)
 .data          0x2000115c       0xf4 c:/program files/codesourcery/sourcery g++ lite/bin/../lib/gcc/arm-none-eabi/4.4.1/../../../../arm-none-eabi/lib/thumb2\libc.a(lib_a-impure.o)
                0x2000115c                _impure_ptr
 .data          0x20001250        0x0 c:/program files/codesourcery/sourcery g++ lite/bin/../lib/gcc/arm-none-eabi/4.4.1/../../../../arm-none-eabi/lib/thumb2\libc.a(lib_a-memcpy.o)
 .data          0x20001250        0x0 c:/program files/codesourcery/sourcery g++ lite/bin/../lib/gcc/arm-none-eabi/4.4.1/../../../../arm-none-eabi/lib/thumb2\libc.a(lib_a-memset.o)
 .data          0x20001250        0x0 c:/program files/codesourcery/sourcery g++ lite/bin/../lib/gcc/arm-none-eabi/4.4.1/../../../../arm-none-eabi/lib/thumb2\libc.a(lib_a-printf.o)
 .data          0x20001250        0x0 c:/program files/codesourcery/sourcery g++ lite/bin/../lib/gcc/arm-none-eabi/4.4.1/../../../../arm-none-eabi/lib/thumb2\libc.a(lib_a-reent.o)
 .data          0x20001250        0x0 c:/program files/codesourcery/sourcery g++ lite/bin/../lib/gcc/arm-none-eabi/4.4.1/../../../../arm-none-eabi/lib/thumb2\libc.a(lib_a-strlen.o)
 .data          0x20001250        0x0 c:/program files/codesourcery/sourcery g++ lite/bin/../lib/gcc/arm-none-eabi/4.4.1/../../../../arm-none-eabi/lib/thumb2\libc.a(lib_a-strncpy.o)
 .data          0x20001250        0x0 c:/program files/codesourcery/sourcery g++ lite/bin/../lib/gcc/arm-none-eabi/4.4.1/../../../../arm-none-eabi/lib/thumb2\libc.a(lib_a-vfiprintf.o)
 .data          0x20001250        0x0 c:/program files/codesourcery/sourcery g++ lite/bin/../lib/gcc/arm-none-eabi/4.4.1/../../../../arm-none-eabi/lib/thumb2\libc.a(lib_a-vfprintf.o)
 .data          0x20001250        0x0 c:/program files/codesourcery/sourcery g++ lite/bin/../lib/gcc/arm-none-eabi/4.4.1/../../../../arm-none-eabi/lib/thumb2\libc.a(lib_a-wsetup.o)
 .data          0x20001250        0x0 c:/program files/codesourcery/sourcery g++ lite/bin/../lib/gcc/arm-none-eabi/4.4.1/../../../../arm-none-eabi/lib/thumb2\libc.a(lib_a-abort.o)
 .data          0x20001250        0x0 c:/program files/codesourcery/sourcery g++ lite/bin/../lib/gcc/arm-none-eabi/4.4.1/../../../../arm-none-eabi/lib/thumb2\libc.a(lib_a-dtoa.o)
 .data          0x20001250        0x0 c:/program files/codesourcery/sourcery g++ lite/bin/../lib/gcc/arm-none-eabi/4.4.1/../../../../arm-none-eabi/lib/thumb2\libc.a(lib_a-fflush.o)
 .data          0x20001250        0x0 c:/program files/codesourcery/sourcery g++ lite/bin/../lib/gcc/arm-none-eabi/4.4.1/../../../../arm-none-eabi/lib/thumb2\libc.a(lib_a-findfp.o)
 .data          0x20001250        0x0 c:/program files/codesourcery/sourcery g++ lite/bin/../lib/gcc/arm-none-eabi/4.4.1/../../../../arm-none-eabi/lib/thumb2\libc.a(lib_a-freer.o)
 .data          0x20001250        0x0 c:/program files/codesourcery/sourcery g++ lite/bin/../lib/gcc/arm-none-eabi/4.4.1/../../../../arm-none-eabi/lib/thumb2\libc.a(lib_a-fvwrite.o)
 .data          0x20001250        0x0 c:/program files/codesourcery/sourcery g++ lite/bin/../lib/gcc/arm-none-eabi/4.4.1/../../../../arm-none-eabi/lib/thumb2\libc.a(lib_a-fwalk.o)
 .data          0x20001250       0x10 c:/program files/codesourcery/sourcery g++ lite/bin/../lib/gcc/arm-none-eabi/4.4.1/../../../../arm-none-eabi/lib/thumb2\libc.a(lib_a-locale.o)
                0x20001250                __mb_cur_max
                0x20001254                __lc_ctype
 .data          0x20001260        0x0 c:/program files/codesourcery/sourcery g++ lite/bin/../lib/gcc/arm-none-eabi/4.4.1/../../../../arm-none-eabi/lib/thumb2\libc.a(lib_a-makebuf.o)
 .data          0x20001260        0x0 c:/program files/codesourcery/sourcery g++ lite/bin/../lib/gcc/arm-none-eabi/4.4.1/../../../../arm-none-eabi/lib/thumb2\libc.a(lib_a-malloc.o)
 .data          0x20001260      0x410 c:/program files/codesourcery/sourcery g++ lite/bin/../lib/gcc/arm-none-eabi/4.4.1/../../../../arm-none-eabi/lib/thumb2\libc.a(lib_a-mallocr.o)
                0x20001260                __malloc_av_
                0x20001668                __malloc_sbrk_base
                0x2000166c                __malloc_trim_threshold
 .data          0x20001670        0x0 c:/program files/codesourcery/sourcery g++ lite/bin/../lib/gcc/arm-none-eabi/4.4.1/../../../../arm-none-eabi/lib/thumb2\libc.a(lib_a-memchr.o)
 .data          0x20001670        0x0 c:/program files/codesourcery/sourcery g++ lite/bin/../lib/gcc/arm-none-eabi/4.4.1/../../../../arm-none-eabi/lib/thumb2\libc.a(lib_a-memmove.o)
 .data          0x20001670        0x0 c:/program files/codesourcery/sourcery g++ lite/bin/../lib/gcc/arm-none-eabi/4.4.1/../../../../arm-none-eabi/lib/thumb2\libc.a(lib_a-mlock.o)
 .data          0x20001670        0x0 c:/program files/codesourcery/sourcery g++ lite/bin/../lib/gcc/arm-none-eabi/4.4.1/../../../../arm-none-eabi/lib/thumb2\libc.a(lib_a-mprec.o)
 .data          0x20001670        0x0 c:/program files/codesourcery/sourcery g++ lite/bin/../lib/gcc/arm-none-eabi/4.4.1/../../../../arm-none-eabi/lib/thumb2\libc.a(lib_a-reallocr.o)
 .data          0x20001670        0x0 c:/program files/codesourcery/sourcery g++ lite/bin/../lib/gcc/arm-none-eabi/4.4.1/../../../../arm-none-eabi/lib/thumb2\libc.a(lib_a-s_isinfd.o)
 .data          0x20001670        0x0 c:/program files/codesourcery/sourcery g++ lite/bin/../lib/gcc/arm-none-eabi/4.4.1/../../../../arm-none-eabi/lib/thumb2\libc.a(lib_a-s_isnand.o)
 .data          0x20001670        0x0 c:/program files/codesourcery/sourcery g++ lite/bin/../lib/gcc/arm-none-eabi/4.4.1/../../../../arm-none-eabi/lib/thumb2\libc.a(lib_a-sbrkr.o)
 .data          0x20001670        0x0 c:/program files/codesourcery/sourcery g++ lite/bin/../lib/gcc/arm-none-eabi/4.4.1/../../../../arm-none-eabi/lib/thumb2\libc.a(lib_a-signal.o)
 .data          0x20001670        0x0 c:/program files/codesourcery/sourcery g++ lite/bin/../lib/gcc/arm-none-eabi/4.4.1/../../../../arm-none-eabi/lib/thumb2\libc.a(lib_a-signalr.o)
 .data          0x20001670        0x0 c:/program files/codesourcery/sourcery g++ lite/bin/../lib/gcc/arm-none-eabi/4.4.1/../../../../arm-none-eabi/lib/thumb2\libc.a(lib_a-stdio.o)
 .data          0x20001670        0x0 c:/program files/codesourcery/sourcery g++ lite/bin/../lib/gcc/arm-none-eabi/4.4.1/../../../../arm-none-eabi/lib/thumb2\libc.a(lib_a-strcmp.o)
 .data          0x20001670        0x0 c:/program files/codesourcery/sourcery g++ lite/bin/../lib/gcc/arm-none-eabi/4.4.1/../../../../arm-none-eabi/lib/thumb2\libc.a(lib_a-writer.o)
 .data          0x20001670        0x0 c:/program files/codesourcery/sourcery g++ lite/bin/../lib/gcc/arm-none-eabi/4.4.1/../../../../arm-none-eabi/lib/thumb2\libc.a(lib_a-callocr.o)
 .data          0x20001670        0x0 c:/program files/codesourcery/sourcery g++ lite/bin/../lib/gcc/arm-none-eabi/4.4.1/../../../../arm-none-eabi/lib/thumb2\libc.a(lib_a-closer.o)
 .data          0x20001670        0x0 c:/program files/codesourcery/sourcery g++ lite/bin/../lib/gcc/arm-none-eabi/4.4.1/../../../../arm-none-eabi/lib/thumb2\libc.a(lib_a-fclose.o)
 .data          0x20001670        0x0 c:/program files/codesourcery/sourcery g++ lite/bin/../lib/gcc/arm-none-eabi/4.4.1/../../../../arm-none-eabi/lib/thumb2\libc.a(lib_a-fstatr.o)
 .data          0x20001670        0x0 c:/program files/codesourcery/sourcery g++ lite/bin/../lib/gcc/arm-none-eabi/4.4.1/../../../../arm-none-eabi/lib/thumb2\libc.a(lib_a-isattyr.o)
 .data          0x20001670        0x0 c:/program files/codesourcery/sourcery g++ lite/bin/../lib/gcc/arm-none-eabi/4.4.1/../../../../arm-none-eabi/lib/thumb2\libc.a(lib_a-lseekr.o)
 .data          0x20001670        0x0 c:/program files/codesourcery/sourcery g++ lite/bin/../lib/gcc/arm-none-eabi/4.4.1/../../../../arm-none-eabi/lib/thumb2\libc.a(lib_a-readr.o)
 .data          0x20001670        0x0 c:/program files/codesourcery/sourcery g++ lite/bin/../lib/gcc/arm-none-eabi/4.4.1/thumb2\libgcc.a(_udivsi3.o)
 .data          0x20001670        0x0 c:/program files/codesourcery/sourcery g++ lite/bin/../lib/gcc/arm-none-eabi/4.4.1/thumb2\libgcc.a(_dvmd_tls.o)
 .data          0x20001670        0x0 c:/program files/codesourcery/sourcery g++ lite/bin/../lib/gcc/arm-none-eabi/4.4.1/thumb2\libgcc.a(_arm_addsubdf3.o)
 .data          0x20001670        0x0 c:/program files/codesourcery/sourcery g++ lite/bin/../lib/gcc/arm-none-eabi/4.4.1/thumb2\libgcc.a(_arm_muldivdf3.o)
 .data          0x20001670        0x0 c:/program files/codesourcery/sourcery g++ lite/bin/../lib/gcc/arm-none-eabi/4.4.1/thumb2\libgcc.a(_arm_cmpdf2.o)
 .data          0x20001670        0x0 c:/program files/codesourcery/sourcery g++ lite/bin/../lib/gcc/arm-none-eabi/4.4.1/thumb2\libgcc.a(_arm_fixdfsi.o)
 .data          0x20001670        0x0 c:/program files/codesourcery/sourcery g++ lite/bin/../lib/gcc/arm-none-eabi/4.4.1/thumb2\libgcc.a(_aeabi_uldivmod.o)
 .data          0x20001670        0x0 c:/program files/codesourcery/sourcery g++ lite/bin/../lib/gcc/arm-none-eabi/4.4.1/thumb2\libgcc.a(bpabi.o)
 .data          0x20001670        0x0 c:/program files/codesourcery/sourcery g++ lite/bin/../lib/gcc/arm-none-eabi/4.4.1/thumb2\libgcc.a(_divdi3.o)
 .data          0x20001670        0x0 c:/program files/codesourcery/sourcery g++ lite/bin/../lib/gcc/arm-none-eabi/4.4.1/thumb2\libgcc.a(_udivdi3.o)
                0x20001670                _edata = .

.bss            0x20001670     0xb01c load address 0x0002b890
                0x20001670                _bss = .
 *(.bss*)
 .bss           0x20001670        0x0 Debug/main.o
 .bss.xHighPrior
                0x20001670        0x4 Debug/main.o
                0x20001670                xHighPrior
 .bss           0x20001674        0x0 Debug/stm32f10x_it.o
 .bss           0x20001674        0x0 Debug/stf_syscalls_minimal.o
 .bss.__env     0x20001674        0x4 Debug/stf_syscalls_minimal.o
                0x20001674                __env
 .bss.heap      0x20001678        0x4 Debug/stf_syscalls_minimal.o
 .bss           0x2000167c        0x0 Debug/ledTask.o
 .bss.s_timSemaphore
                0x2000167c        0x4 Debug/ledTask.o
 .bss           0x20001680        0x0 Debug/stm3210c_eval_lcd.o
 .bss.TextColor
                0x20001680        0x2 Debug/stm3210c_eval_lcd.o
 .bss           0x20001682        0x0 Debug/drvTask.o
 *fill*         0x20001682        0x2 00
 .bss.szCur0x1008_0x00_g
                0x20001684       0x24 Debug/drvTask.o
 .bss.szCur0x1009_0x00_g
                0x200016a8       0x24 Debug/drvTask.o
 .bss.szCur0x100A_0x00_g
                0x200016cc       0x24 Debug/drvTask.o
 .bss.szCur0x1030_0x02_g
                0x200016f0       0x24 Debug/drvTask.o
 .bss.bCur0x1030_0x05_g
                0x20001714        0x8 Debug/drvTask.o
 .bss.szCur0x1030_0x06_g
                0x2000171c       0x24 Debug/drvTask.o
 .bss.xCur0x1000_0x00_g
                0x20001740        0x4 Debug/drvTask.o
 .bss.xCur0x1001_0x00_g
                0x20001744        0x1 Debug/drvTask.o
 *fill*         0x20001745        0x3 00
 .bss.xCur0x1006_0x00_g
                0x20001748        0x4 Debug/drvTask.o
 .bss.xCur0x1008_0x00_g
                0x2000174c        0x8 Debug/drvTask.o
 .bss.xCur0x1009_0x00_g
                0x20001754        0x8 Debug/drvTask.o
 .bss.xCur0x100A_0x00_g
                0x2000175c        0x8 Debug/drvTask.o
 .bss.xCur0x1018_0x00_g
                0x20001764        0x1 Debug/drvTask.o
 *fill*         0x20001765        0x3 00
 .bss.xCur0x1018_0x01_g
                0x20001768        0x4 Debug/drvTask.o
 .bss.xCur0x1018_0x02_g
                0x2000176c        0x4 Debug/drvTask.o
 .bss.xCur0x1018_0x03_g
                0x20001770        0x4 Debug/drvTask.o
 .bss.xCur0x1018_0x04_g
                0x20001774        0x4 Debug/drvTask.o
 .bss.xCur0x1020_0x00_g
                0x20001778        0x1 Debug/drvTask.o
 *fill*         0x20001779        0x3 00
 .bss.xCur0x1020_0x01_g
                0x2000177c        0x4 Debug/drvTask.o
 .bss.xCur0x1020_0x02_g
                0x20001780        0x4 Debug/drvTask.o
 .bss.xCur0x1030_0x00_g
                0x20001784        0x1 Debug/drvTask.o
 *fill*         0x20001785        0x1 00
 .bss.xCur0x1030_0x01_g
                0x20001786        0x2 Debug/drvTask.o
 .bss.xCur0x1030_0x02_g
                0x20001788        0x8 Debug/drvTask.o
 .bss.xCur0x1030_0x03_g
                0x20001790        0x1 Debug/drvTask.o
 *fill*         0x20001791        0x1 00
 .bss.xCur0x1030_0x04_g
                0x20001792        0x2 Debug/drvTask.o
 .bss.xCur0x1030_0x05_g
                0x20001794        0x8 Debug/drvTask.o
 .bss.xCur0x1030_0x06_g
                0x2000179c        0x8 Debug/drvTask.o
 .bss.xCur0x1030_0x07_g
                0x200017a4        0x1 Debug/drvTask.o
 .bss.xCur0x1030_0x08_g
                0x200017a5        0x1 Debug/drvTask.o
 .bss.xCur0x1030_0x09_g
                0x200017a6        0x1 Debug/drvTask.o
 *fill*         0x200017a7        0x1 00
 .bss.xCur0x1300_0x00_g
                0x200017a8        0x4 Debug/drvTask.o
 .bss.xCur0x1400_0x00_g
                0x200017ac        0x1 Debug/drvTask.o
 .bss.xCur0x1400_0x01_g
                0x200017ad        0x1 Debug/drvTask.o
 .bss.xCur0x1400_0x02_g
                0x200017ae        0x1 Debug/drvTask.o
 .bss.xCur0x1600_0x00_g
                0x200017af        0x1 Debug/drvTask.o
 .bss.xCur0x1600_0x01_g
                0x200017b0        0x8 Debug/drvTask.o
 .bss.xCur0x1600_0x02_g
                0x200017b8        0x8 Debug/drvTask.o
 .bss.xCur0x1800_0x00_g
                0x200017c0        0x1 Debug/drvTask.o
 .bss.xCur0x1800_0x01_g
                0x200017c1        0x1 Debug/drvTask.o
 .bss.xCur0x1800_0x02_g
                0x200017c2        0x1 Debug/drvTask.o
 .bss.xCur0x1A00_0x00_g
                0x200017c3        0x1 Debug/drvTask.o
 *fill*         0x200017c4        0x4 00
 .bss.xCur0x1A00_0x01_g
                0x200017c8        0x8 Debug/drvTask.o
 .bss.xCur0x1A00_0x02_g
                0x200017d0        0x8 Debug/drvTask.o
 .bss.xCur0x1C0B_0x00_g
                0x200017d8        0x1 Debug/drvTask.o
 *fill*         0x200017d9        0x3 00
 .bss.VarEntry0x1C0B_0x01_g
                0x200017dc        0x8 Debug/drvTask.o
 .bss.VarEntry0x1C0B_0x02_g
                0x200017e4        0x8 Debug/drvTask.o
 .bss.VarEntry0x1C0B_0x03_g
                0x200017ec        0x8 Debug/drvTask.o
 .bss.xCur0x1C0D_0x00_g
                0x200017f4        0x1 Debug/drvTask.o
 *fill*         0x200017f5        0x3 00
 .bss.VarEntry0x1C0D_0x01_g
                0x200017f8        0x8 Debug/drvTask.o
 .bss.VarEntry0x1C0D_0x02_g
                0x20001800        0x8 Debug/drvTask.o
 .bss.VarEntry0x1C0D_0x03_g
                0x20001808        0x8 Debug/drvTask.o
 .bss.xCur0x1C0F_0x00_g
                0x20001810        0x1 Debug/drvTask.o
 *fill*         0x20001811        0x3 00
 .bss.VarEntry0x1C0F_0x01_g
                0x20001814        0x8 Debug/drvTask.o
 .bss.VarEntry0x1C0F_0x02_g
                0x2000181c        0x8 Debug/drvTask.o
 .bss.VarEntry0x1C0F_0x03_g
                0x20001824        0x8 Debug/drvTask.o
 .bss.xCur0x1C14_0x00_g
                0x2000182c        0x4 Debug/drvTask.o
 .bss.xCur0x1F82_0x00_g
                0x20001830        0x4 Debug/drvTask.o
 .bss.xCur0x1F83_0x00_g
                0x20001834        0x1 Debug/drvTask.o
 .bss.xCur0x1F8C_0x00_g
                0x20001835        0x1 Debug/drvTask.o
 .bss.xCur0x1F93_0x00_g
                0x20001836        0x1 Debug/drvTask.o
 .bss.xCur0x1F93_0x01_g
                0x20001837        0x1 Debug/drvTask.o
 .bss.xCur0x1F93_0x02_g
                0x20001838        0x1 Debug/drvTask.o
 .bss.xCur0x1F98_0x00_g
                0x20001839        0x1 Debug/drvTask.o
 .bss.xCur0x1F98_0x01_g
                0x2000183a        0x2 Debug/drvTask.o
 .bss.xCur0x1F98_0x02_g
                0x2000183c        0x2 Debug/drvTask.o
 *fill*         0x2000183e        0x2 00
 .bss.xCur0x1F98_0x03_g
                0x20001840        0x4 Debug/drvTask.o
 .bss.xCur0x1F98_0x04_g
                0x20001844        0x2 Debug/drvTask.o
 .bss.xCur0x1F98_0x05_g
                0x20001846        0x2 Debug/drvTask.o
 .bss.xCur0x1F98_0x06_g
                0x20001848        0x4 Debug/drvTask.o
 .bss.xCur0x1F98_0x07_g
                0x2000184c        0x1 Debug/drvTask.o
 *fill*         0x2000184d        0x1 00
 .bss.xCur0x1F98_0x08_g
                0x2000184e        0x2 Debug/drvTask.o
 .bss.xCur0x1F99_0x00_g
                0x20001850        0x4 Debug/drvTask.o
 .bss.xCur0x1F9E_0x00_g
                0x20001854        0x1 Debug/drvTask.o
 .bss.xCur0x6000_0x00_g
                0x20001855        0x1 Debug/drvTask.o
 *fill*         0x20001856        0x2 00
 .bss.VarEntry0x6000_0x01_g
                0x20001858        0x8 Debug/drvTask.o
 .bss.xCur0x6003_0x00_g
                0x20001860        0x1 Debug/drvTask.o
 *fill*         0x20001861        0x3 00
 .bss.VarEntry0x6003_0x01_g
                0x20001864        0x8 Debug/drvTask.o
 .bss.VarEntry0x6100_0x00_g
                0x2000186c        0x8 Debug/drvTask.o
 .bss.xCur0x6200_0x00_g
                0x20001874        0x1 Debug/drvTask.o
 *fill*         0x20001875        0x3 00
 .bss.VarEntry0x6200_0x01_g
                0x20001878        0x8 Debug/drvTask.o
 .bss.xCur0x6203_0x00_g
                0x20001880        0x1 Debug/drvTask.o
 *fill*         0x20001881        0x3 00
 .bss.VarEntry0x6203_0x01_g
                0x20001884        0x8 Debug/drvTask.o
 .bss.handlercount
                0x2000188c        0x4 Debug/drvTask.o
 .bss.b         0x20001890        0x4 Debug/drvTask.o
 *fill*         0x20001894        0x4 00
 .bss.EplApiInitParam
                0x20001898      0x100 Debug/drvTask.o
 .bss.enable_multitasking.6498
                0x20001998        0x4 Debug/drvTask.o
 .bss           0x2000199c        0x0 Debug/debugging.o
 .bss           0x2000199c        0x0 Debug/LedHandler.o
 .bss.ucBitStates
                0x2000199c        0x4 Debug/LedHandler.o
 .bss.uxIO_Port
                0x200019a0       0x10 Debug/LedHandler.o
 .bss           0x200019b0        0x0 Debug/PushButton.o
 .bss           0x200019b0        0x0 Debug/core_cm3.o
 .bss           0x200019b0        0x0 Debug/system_stm32f10x.o
 .bss           0x200019b0        0x0 Debug/misc.o
 .bss           0x200019b0        0x0 Debug/stm32f10x_rcc.o
 .bss           0x200019b0        0x0 Debug/stm32f10x_flash.o
 .bss           0x200019b0        0x0 Debug/stm32f10x_gpio.o
 .bss           0x200019b0        0x0 Debug/stm32f10x_tim.o
 .bss           0x200019b0        0x0 Debug/stm32f10x_spi.o
 .bss           0x200019b0        0x0 Debug/stm32_eth.o
 .bss           0x200019b0        0x0 Debug/list.o
 .bss           0x200019b0        0x0 Debug/queue.o
 .bss           0x200019b0        0x0 Debug/tasks.o
 .bss.pxCurrentTCB
                0x200019b0        0x4 Debug/tasks.o
                0x200019b0                pxCurrentTCB
 .bss.pxReadyTasksLists
                0x200019b4       0x50 Debug/tasks.o
 .bss.xDelayedTaskList1
                0x20001a04       0x14 Debug/tasks.o
 .bss.xDelayedTaskList2
                0x20001a18       0x14 Debug/tasks.o
 .bss.pxDelayedTaskList
                0x20001a2c        0x4 Debug/tasks.o
 .bss.pxOverflowDelayedTaskList
                0x20001a30        0x4 Debug/tasks.o
 .bss.xPendingReadyList
                0x20001a34       0x14 Debug/tasks.o
 .bss.xSuspendedTaskList
                0x20001a48       0x14 Debug/tasks.o
 .bss.uxCurrentNumberOfTasks
                0x20001a5c        0x4 Debug/tasks.o
 .bss.xTickCount
                0x20001a60        0x4 Debug/tasks.o
 .bss.uxTopUsedPriority
                0x20001a64        0x4 Debug/tasks.o
 .bss.uxTopReadyPriority
                0x20001a68        0x4 Debug/tasks.o
 .bss.xSchedulerRunning
                0x20001a6c        0x4 Debug/tasks.o
 .bss.uxSchedulerSuspended
                0x20001a70        0x4 Debug/tasks.o
 .bss.uxMissedTicks
                0x20001a74        0x4 Debug/tasks.o
 .bss.xMissedYield
                0x20001a78        0x4 Debug/tasks.o
 .bss.xNumOfOverflows
                0x20001a7c        0x4 Debug/tasks.o
 .bss.uxTaskNumber
                0x20001a80        0x4 Debug/tasks.o
 .bss           0x20001a84        0x0 Debug/port.o
 .bss           0x20001a84        0x0 Debug/heap_2.o
 .bss.xHeap     0x20001a84     0x3404 Debug/heap_2.o
 .bss.xStart    0x20004e88        0x8 Debug/heap_2.o
 .bss.xEnd      0x20004e90        0x8 Debug/heap_2.o
 .bss.xFreeBytesRemaining
                0x20004e98        0x4 Debug/heap_2.o
 .bss.xHeapHasBeenInitialised.1974
                0x20004e9c        0x4 Debug/heap_2.o
 .bss           0x20004ea0        0x0 Debug/amiarm.o
 .bss           0x20004ea0        0x0 Debug/EplApiGeneric.o
 .bss.EplApiInstance_g
                0x20004ea0      0x100 Debug/EplApiGeneric.o
 .bss.count.4440
                0x20004fa0        0x4 Debug/EplApiGeneric.o
 .bss           0x20004fa4        0x0 Debug/EplApiProcessImage.o
 .bss           0x20004fa4        0x0 Debug/EplDllk.o
 *fill*         0x20004fa4        0x4 00
 .bss.EplDllkInstance_g
                0x20004fa8      0x2d8 Debug/EplDllk.o
 .bss.aEplDllkTxBuffer_l
                0x20005280       0x78 Debug/EplDllk.o
 .bss           0x200052f8        0x0 Debug/EplDllkCal.o
 .bss.EplDllkCalInstance_g
                0x200052f8      0xbd8 Debug/EplDllkCal.o
 .bss           0x20005ed0        0x0 Debug/EplDlluCal.o
 .bss.EplDlluCalInstance_g
                0x20005ed0       0x18 Debug/EplDlluCal.o
 .bss           0x20005ee8        0x0 Debug/EplErrorHandlerk.o
 .bss.EplErrorHandlerkInstance_g
                0x20005ee8       0x28 Debug/EplErrorHandlerk.o
 .bss           0x20005f10        0x0 Debug/EplEventk.o
 .bss.EplEventkInstance_g
                0x20005f10        0x0 Debug/EplEventk.o
 .bss           0x20005f10        0x0 Debug/EplEventu.o
 .bss.EplEventuInstance_g
                0x20005f10        0x4 Debug/EplEventu.o
 .bss           0x20005f14        0x0 Debug/EplIdentu.o
 .bss.EplIdentuInstance_g
                0x20005f14      0x7f0 Debug/EplIdentu.o
 .bss           0x20006704        0x0 Debug/EplLedu.o
 .bss           0x20006704        0x0 Debug/EplNmtCnu.o
 .bss.EplNmtCnuInstance_g
                0x20006704        0x8 Debug/EplNmtCnu.o
 .bss           0x2000670c        0x0 Debug/EplNmtk.o
 .bss.m_NmtState
                0x2000670c        0x2 Debug/EplNmtk.o
 .bss.m_fEnableReadyToOperate
                0x2000670e        0x1 Debug/EplNmtk.o
 .bss.m_fAppReadyToOperate
                0x2000670f        0x1 Debug/EplNmtk.o
 .bss.m_fTimerMsPreOp2
                0x20006710        0x1 Debug/EplNmtk.o
 .bss.m_fAllMandatoryCNIdent
                0x20006711        0x1 Debug/EplNmtk.o
 .bss.m_fFrozen
                0x20006712        0x1 Debug/EplNmtk.o
 .bss           0x20006713        0x0 Debug/EplNmtkCal.o
 .bss           0x20006713        0x0 Debug/EplNmtMnu.o
 .bss           0x20006713        0x0 Debug/EplNmtu.o
 *fill*         0x20006713        0x1 00
 .bss.EplNmtuInstance_g
                0x20006714        0xc Debug/EplNmtu.o
 .bss           0x20006720        0x0 Debug/EplNmtuCal.o
 .bss           0x20006720        0x0 Debug/EplObd.o
 .bss.m_ObdInitParam
                0x20006720        0xc Debug/EplObd.o
 .bss.m_fpStoreLoadObjCallback
                0x2000672c        0x4 Debug/EplObd.o
 .bss           0x20006730        0x0 Debug/EplObdkCal.o
 .bss           0x20006730        0x0 Debug/EplObdu.o
 .bss           0x20006730        0x0 Debug/EplObduCal.o
 .bss           0x20006730        0x0 Debug/EplPdok.o
 .bss.EplPdokInstance_g
                0x20006730       0x18 Debug/EplPdok.o
 .bss           0x20006748        0x0 Debug/EplPdokCal.o
 .bss           0x20006748        0x0 Debug/EplPdouCal.o
 .bss           0x20006748        0x0 Debug/EplPdou.o
 .bss.EplPdouInstance_g
                0x20006748      0x104 Debug/EplPdou.o
 .bss           0x2000684c        0x0 Debug/EplSdoAsndu.o
 .bss.SdoAsndInstance_g
                0x2000684c       0x18 Debug/EplSdoAsndu.o
 .bss           0x20006864        0x0 Debug/EplSdoAsySequ.o
 .bss.AsySdoSequInstance_g
                0x20006864     0x1e30 Debug/EplSdoAsySequ.o
 .bss           0x20008694        0x0 Debug/EplSdoComu.o
 .bss.SdoComInstance_g
                0x20008694      0x104 Debug/EplSdoComu.o
 .bss           0x20008798        0x0 Debug/EplSdoUdpu.o
 .bss           0x20008798        0x0 Debug/EplStatusu.o
 .bss.EplStatusuInstance_g
                0x20008798      0x3f8 Debug/EplStatusu.o
 .bss           0x20008b90        0x0 Debug/EplTimeruGeneric.o
 .bss.EplTimeruInstance_g
                0x20008b90       0x18 Debug/EplTimeruGeneric.o
 .bss           0x20008ba8        0x0 Debug/EplApiFreeRTOS.o
 .bss           0x20008ba8        0x0 Debug/Objdict.o
 .bss.szCur0x1008_0x00_g
                0x20008ba8       0x24 Debug/Objdict.o
 .bss.szCur0x1009_0x00_g
                0x20008bcc       0x24 Debug/Objdict.o
 .bss.szCur0x100A_0x00_g
                0x20008bf0       0x24 Debug/Objdict.o
 .bss.szCur0x1030_0x02_g
                0x20008c14       0x24 Debug/Objdict.o
 .bss.bCur0x1030_0x05_g
                0x20008c38        0x8 Debug/Objdict.o
 .bss.szCur0x1030_0x06_g
                0x20008c40       0x24 Debug/Objdict.o
 .bss.xCur0x1000_0x00_g
                0x20008c64        0x4 Debug/Objdict.o
 .bss.xCur0x1001_0x00_g
                0x20008c68        0x1 Debug/Objdict.o
 *fill*         0x20008c69        0x3 00
 .bss.xCur0x1006_0x00_g
                0x20008c6c        0x4 Debug/Objdict.o
 .bss.xCur0x1008_0x00_g
                0x20008c70        0x8 Debug/Objdict.o
 .bss.xCur0x1009_0x00_g
                0x20008c78        0x8 Debug/Objdict.o
 .bss.xCur0x100A_0x00_g
                0x20008c80        0x8 Debug/Objdict.o
 .bss.xCur0x1018_0x00_g
                0x20008c88        0x1 Debug/Objdict.o
 *fill*         0x20008c89        0x3 00
 .bss.xCur0x1018_0x01_g
                0x20008c8c        0x4 Debug/Objdict.o
 .bss.xCur0x1018_0x02_g
                0x20008c90        0x4 Debug/Objdict.o
 .bss.xCur0x1018_0x03_g
                0x20008c94        0x4 Debug/Objdict.o
 .bss.xCur0x1018_0x04_g
                0x20008c98        0x4 Debug/Objdict.o
 .bss.xCur0x1020_0x00_g
                0x20008c9c        0x1 Debug/Objdict.o
 *fill*         0x20008c9d        0x3 00
 .bss.xCur0x1020_0x01_g
                0x20008ca0        0x4 Debug/Objdict.o
 .bss.xCur0x1020_0x02_g
                0x20008ca4        0x4 Debug/Objdict.o
 .bss.xCur0x1030_0x00_g
                0x20008ca8        0x1 Debug/Objdict.o
 *fill*         0x20008ca9        0x1 00
 .bss.xCur0x1030_0x01_g
                0x20008caa        0x2 Debug/Objdict.o
 .bss.xCur0x1030_0x02_g
                0x20008cac        0x8 Debug/Objdict.o
 .bss.xCur0x1030_0x03_g
                0x20008cb4        0x1 Debug/Objdict.o
 *fill*         0x20008cb5        0x1 00
 .bss.xCur0x1030_0x04_g
                0x20008cb6        0x2 Debug/Objdict.o
 .bss.xCur0x1030_0x05_g
                0x20008cb8        0x8 Debug/Objdict.o
 .bss.xCur0x1030_0x06_g
                0x20008cc0        0x8 Debug/Objdict.o
 .bss.xCur0x1030_0x07_g
                0x20008cc8        0x1 Debug/Objdict.o
 .bss.xCur0x1030_0x08_g
                0x20008cc9        0x1 Debug/Objdict.o
 .bss.xCur0x1030_0x09_g
                0x20008cca        0x1 Debug/Objdict.o
 *fill*         0x20008ccb        0x1 00
 .bss.xCur0x1300_0x00_g
                0x20008ccc        0x4 Debug/Objdict.o
 .bss.xCur0x1400_0x00_g
                0x20008cd0        0x1 Debug/Objdict.o
 .bss.xCur0x1400_0x01_g
                0x20008cd1        0x1 Debug/Objdict.o
 .bss.xCur0x1400_0x02_g
                0x20008cd2        0x1 Debug/Objdict.o
 .bss.xCur0x1600_0x00_g
                0x20008cd3        0x1 Debug/Objdict.o
 *fill*         0x20008cd4        0x4 00
 .bss.xCur0x1600_0x01_g
                0x20008cd8        0x8 Debug/Objdict.o
 .bss.xCur0x1600_0x02_g
                0x20008ce0        0x8 Debug/Objdict.o
 .bss.xCur0x1800_0x00_g
                0x20008ce8        0x1 Debug/Objdict.o
 .bss.xCur0x1800_0x01_g
                0x20008ce9        0x1 Debug/Objdict.o
 .bss.xCur0x1800_0x02_g
                0x20008cea        0x1 Debug/Objdict.o
 .bss.xCur0x1A00_0x00_g
                0x20008ceb        0x1 Debug/Objdict.o
 *fill*         0x20008cec        0x4 00
 .bss.xCur0x1A00_0x01_g
                0x20008cf0        0x8 Debug/Objdict.o
 .bss.xCur0x1A00_0x02_g
                0x20008cf8        0x8 Debug/Objdict.o
 .bss.xCur0x1C0B_0x00_g
                0x20008d00        0x1 Debug/Objdict.o
 *fill*         0x20008d01        0x3 00
 .bss.VarEntry0x1C0B_0x01_g
                0x20008d04        0x8 Debug/Objdict.o
 .bss.VarEntry0x1C0B_0x02_g
                0x20008d0c        0x8 Debug/Objdict.o
 .bss.VarEntry0x1C0B_0x03_g
                0x20008d14        0x8 Debug/Objdict.o
 .bss.xCur0x1C0D_0x00_g
                0x20008d1c        0x1 Debug/Objdict.o
 *fill*         0x20008d1d        0x3 00
 .bss.VarEntry0x1C0D_0x01_g
                0x20008d20        0x8 Debug/Objdict.o
 .bss.VarEntry0x1C0D_0x02_g
                0x20008d28        0x8 Debug/Objdict.o
 .bss.VarEntry0x1C0D_0x03_g
                0x20008d30        0x8 Debug/Objdict.o
 .bss.xCur0x1C0F_0x00_g
                0x20008d38        0x1 Debug/Objdict.o
 *fill*         0x20008d39        0x3 00
 .bss.VarEntry0x1C0F_0x01_g
                0x20008d3c        0x8 Debug/Objdict.o
 .bss.VarEntry0x1C0F_0x02_g
                0x20008d44        0x8 Debug/Objdict.o
 .bss.VarEntry0x1C0F_0x03_g
                0x20008d4c        0x8 Debug/Objdict.o
 .bss.xCur0x1C14_0x00_g
                0x20008d54        0x4 Debug/Objdict.o
 .bss.xCur0x1F82_0x00_g
                0x20008d58        0x4 Debug/Objdict.o
 .bss.xCur0x1F83_0x00_g
                0x20008d5c        0x1 Debug/Objdict.o
 .bss.xCur0x1F8C_0x00_g
                0x20008d5d        0x1 Debug/Objdict.o
 .bss.xCur0x1F93_0x00_g
                0x20008d5e        0x1 Debug/Objdict.o
 .bss.xCur0x1F93_0x01_g
                0x20008d5f        0x1 Debug/Objdict.o
 .bss.xCur0x1F93_0x02_g
                0x20008d60        0x1 Debug/Objdict.o
 .bss.xCur0x1F98_0x00_g
                0x20008d61        0x1 Debug/Objdict.o
 .bss.xCur0x1F98_0x01_g
                0x20008d62        0x2 Debug/Objdict.o
 .bss.xCur0x1F98_0x02_g
                0x20008d64        0x2 Debug/Objdict.o
 *fill*         0x20008d66        0x2 00
 .bss.xCur0x1F98_0x03_g
                0x20008d68        0x4 Debug/Objdict.o
 .bss.xCur0x1F98_0x04_g
                0x20008d6c        0x2 Debug/Objdict.o
 .bss.xCur0x1F98_0x05_g
                0x20008d6e        0x2 Debug/Objdict.o
 .bss.xCur0x1F98_0x06_g
                0x20008d70        0x4 Debug/Objdict.o
 .bss.xCur0x1F98_0x07_g
                0x20008d74        0x1 Debug/Objdict.o
 *fill*         0x20008d75        0x1 00
 .bss.xCur0x1F98_0x08_g
                0x20008d76        0x2 Debug/Objdict.o
 .bss.xCur0x1F99_0x00_g
                0x20008d78        0x4 Debug/Objdict.o
 .bss.xCur0x1F9E_0x00_g
                0x20008d7c        0x1 Debug/Objdict.o
 .bss.xCur0x6000_0x00_g
                0x20008d7d        0x1 Debug/Objdict.o
 *fill*         0x20008d7e        0x2 00
 .bss.VarEntry0x6000_0x01_g
                0x20008d80        0x8 Debug/Objdict.o
 .bss.xCur0x6003_0x00_g
                0x20008d88        0x1 Debug/Objdict.o
 *fill*         0x20008d89        0x3 00
 .bss.VarEntry0x6003_0x01_g
                0x20008d8c        0x8 Debug/Objdict.o
 .bss.VarEntry0x6100_0x00_g
                0x20008d94        0x8 Debug/Objdict.o
 .bss.xCur0x6200_0x00_g
                0x20008d9c        0x1 Debug/Objdict.o
 *fill*         0x20008d9d        0x3 00
 .bss.VarEntry0x6200_0x01_g
                0x20008da0        0x8 Debug/Objdict.o
 .bss.xCur0x6203_0x00_g
                0x20008da8        0x1 Debug/Objdict.o
 *fill*         0x20008da9        0x3 00
 .bss.VarEntry0x6203_0x01_g
                0x20008dac        0x8 Debug/Objdict.o
 .bss           0x20008db4        0x0 Debug/EdrvF107.o
 .bss.ucMACBuffers
                0x20008db4     0x3570 Debug/EdrvF107.o
 .bss.xRxDescriptors
                0x2000c324       0x40 Debug/EdrvF107.o
 .bss.ucBufferInUse
                0x2000c364        0xc Debug/EdrvF107.o
 .bss.s_ulNextDescriptor
                0x2000c370        0x4 Debug/EdrvF107.o
 .bss.xEthInit.5417
                0x2000c374       0xbc Debug/EdrvF107.o
 .bss           0x2000c430        0x0 Debug/STM32Timer.o
 .bss           0x2000c430        0x0 Debug/startup_stm32f10x.o
 .bss.pulStack  0x2000c430      0x100 Debug/startup_stm32f10x.o
 .bss           0x2000c530        0x0 c:/program files/codesourcery/sourcery g++ lite/bin/../lib/gcc/arm-none-eabi/4.4.1/thumb2\libgcc.a(_arm_addsubsf3.o)
 .bss           0x2000c530        0x0 c:/program files/codesourcery/sourcery g++ lite/bin/../lib/gcc/arm-none-eabi/4.4.1/thumb2\libgcc.a(_arm_muldivsf3.o)
 .bss           0x2000c530        0x0 c:/program files/codesourcery/sourcery g++ lite/bin/../lib/gcc/arm-none-eabi/4.4.1/thumb2\libgcc.a(_arm_fixsfsi.o)
 .bss           0x2000c530        0x0 c:/program files/codesourcery/sourcery g++ lite/bin/../lib/gcc/arm-none-eabi/4.4.1/../../../../arm-none-eabi/lib/thumb2\libc.a(lib_a-assert.o)
 .bss           0x2000c530        0x0 c:/program files/codesourcery/sourcery g++ lite/bin/../lib/gcc/arm-none-eabi/4.4.1/../../../../arm-none-eabi/lib/thumb2\libc.a(lib_a-fiprintf.o)
 .bss           0x2000c530        0x0 c:/program files/codesourcery/sourcery g++ lite/bin/../lib/gcc/arm-none-eabi/4.4.1/../../../../arm-none-eabi/lib/thumb2\libc.a(lib_a-impure.o)
 .bss           0x2000c530        0x0 c:/program files/codesourcery/sourcery g++ lite/bin/../lib/gcc/arm-none-eabi/4.4.1/../../../../arm-none-eabi/lib/thumb2\libc.a(lib_a-memcpy.o)
 .bss           0x2000c530        0x0 c:/program files/codesourcery/sourcery g++ lite/bin/../lib/gcc/arm-none-eabi/4.4.1/../../../../arm-none-eabi/lib/thumb2\libc.a(lib_a-memset.o)
 .bss           0x2000c530        0x0 c:/program files/codesourcery/sourcery g++ lite/bin/../lib/gcc/arm-none-eabi/4.4.1/../../../../arm-none-eabi/lib/thumb2\libc.a(lib_a-printf.o)
 .bss           0x2000c530        0x0 c:/program files/codesourcery/sourcery g++ lite/bin/../lib/gcc/arm-none-eabi/4.4.1/../../../../arm-none-eabi/lib/thumb2\libc.a(lib_a-reent.o)
 .bss           0x2000c530        0x0 c:/program files/codesourcery/sourcery g++ lite/bin/../lib/gcc/arm-none-eabi/4.4.1/../../../../arm-none-eabi/lib/thumb2\libc.a(lib_a-strlen.o)
 .bss           0x2000c530        0x0 c:/program files/codesourcery/sourcery g++ lite/bin/../lib/gcc/arm-none-eabi/4.4.1/../../../../arm-none-eabi/lib/thumb2\libc.a(lib_a-strncpy.o)
 .bss           0x2000c530        0x0 c:/program files/codesourcery/sourcery g++ lite/bin/../lib/gcc/arm-none-eabi/4.4.1/../../../../arm-none-eabi/lib/thumb2\libc.a(lib_a-vfiprintf.o)
 .bss           0x2000c530        0x0 c:/program files/codesourcery/sourcery g++ lite/bin/../lib/gcc/arm-none-eabi/4.4.1/../../../../arm-none-eabi/lib/thumb2\libc.a(lib_a-vfprintf.o)
 .bss           0x2000c530        0x0 c:/program files/codesourcery/sourcery g++ lite/bin/../lib/gcc/arm-none-eabi/4.4.1/../../../../arm-none-eabi/lib/thumb2\libc.a(lib_a-wsetup.o)
 .bss           0x2000c530        0x0 c:/program files/codesourcery/sourcery g++ lite/bin/../lib/gcc/arm-none-eabi/4.4.1/../../../../arm-none-eabi/lib/thumb2\libc.a(lib_a-abort.o)
 .bss           0x2000c530        0x0 c:/program files/codesourcery/sourcery g++ lite/bin/../lib/gcc/arm-none-eabi/4.4.1/../../../../arm-none-eabi/lib/thumb2\libc.a(lib_a-dtoa.o)
 .bss           0x2000c530        0x0 c:/program files/codesourcery/sourcery g++ lite/bin/../lib/gcc/arm-none-eabi/4.4.1/../../../../arm-none-eabi/lib/thumb2\libc.a(lib_a-fflush.o)
 .bss           0x2000c530        0x0 c:/program files/codesourcery/sourcery g++ lite/bin/../lib/gcc/arm-none-eabi/4.4.1/../../../../arm-none-eabi/lib/thumb2\libc.a(lib_a-findfp.o)
 .bss           0x2000c530        0x0 c:/program files/codesourcery/sourcery g++ lite/bin/../lib/gcc/arm-none-eabi/4.4.1/../../../../arm-none-eabi/lib/thumb2\libc.a(lib_a-freer.o)
 .bss           0x2000c530        0x0 c:/program files/codesourcery/sourcery g++ lite/bin/../lib/gcc/arm-none-eabi/4.4.1/../../../../arm-none-eabi/lib/thumb2\libc.a(lib_a-fvwrite.o)
 .bss           0x2000c530        0x0 c:/program files/codesourcery/sourcery g++ lite/bin/../lib/gcc/arm-none-eabi/4.4.1/../../../../arm-none-eabi/lib/thumb2\libc.a(lib_a-fwalk.o)
 .bss           0x2000c530        0xc c:/program files/codesourcery/sourcery g++ lite/bin/../lib/gcc/arm-none-eabi/4.4.1/../../../../arm-none-eabi/lib/thumb2\libc.a(lib_a-locale.o)
                0x2000c530                __nlocale_changed
                0x2000c534                __mlocale_changed
                0x2000c538                _PathLocale
 .bss           0x2000c53c        0x0 c:/program files/codesourcery/sourcery g++ lite/bin/../lib/gcc/arm-none-eabi/4.4.1/../../../../arm-none-eabi/lib/thumb2\libc.a(lib_a-makebuf.o)
 .bss           0x2000c53c        0x0 c:/program files/codesourcery/sourcery g++ lite/bin/../lib/gcc/arm-none-eabi/4.4.1/../../../../arm-none-eabi/lib/thumb2\libc.a(lib_a-malloc.o)
 .bss           0x2000c53c       0x34 c:/program files/codesourcery/sourcery g++ lite/bin/../lib/gcc/arm-none-eabi/4.4.1/../../../../arm-none-eabi/lib/thumb2\libc.a(lib_a-mallocr.o)
                0x2000c53c                __malloc_top_pad
                0x2000c540                __malloc_current_mallinfo
                0x2000c568                __malloc_max_sbrked_mem
                0x2000c56c                __malloc_max_total_mem
 .bss           0x2000c570        0x0 c:/program files/codesourcery/sourcery g++ lite/bin/../lib/gcc/arm-none-eabi/4.4.1/../../../../arm-none-eabi/lib/thumb2\libc.a(lib_a-memchr.o)
 .bss           0x2000c570        0x0 c:/program files/codesourcery/sourcery g++ lite/bin/../lib/gcc/arm-none-eabi/4.4.1/../../../../arm-none-eabi/lib/thumb2\libc.a(lib_a-memmove.o)
 .bss           0x2000c570        0x0 c:/program files/codesourcery/sourcery g++ lite/bin/../lib/gcc/arm-none-eabi/4.4.1/../../../../arm-none-eabi/lib/thumb2\libc.a(lib_a-mlock.o)
 .bss           0x2000c570        0x0 c:/program files/codesourcery/sourcery g++ lite/bin/../lib/gcc/arm-none-eabi/4.4.1/../../../../arm-none-eabi/lib/thumb2\libc.a(lib_a-mprec.o)
 .bss           0x2000c570        0x0 c:/program files/codesourcery/sourcery g++ lite/bin/../lib/gcc/arm-none-eabi/4.4.1/../../../../arm-none-eabi/lib/thumb2\libc.a(lib_a-reallocr.o)
 .bss           0x2000c570        0x0 c:/program files/codesourcery/sourcery g++ lite/bin/../lib/gcc/arm-none-eabi/4.4.1/../../../../arm-none-eabi/lib/thumb2\libc.a(lib_a-s_isinfd.o)
 .bss           0x2000c570        0x0 c:/program files/codesourcery/sourcery g++ lite/bin/../lib/gcc/arm-none-eabi/4.4.1/../../../../arm-none-eabi/lib/thumb2\libc.a(lib_a-s_isnand.o)
 .bss           0x2000c570        0x0 c:/program files/codesourcery/sourcery g++ lite/bin/../lib/gcc/arm-none-eabi/4.4.1/../../../../arm-none-eabi/lib/thumb2\libc.a(lib_a-sbrkr.o)
 .bss           0x2000c570        0x0 c:/program files/codesourcery/sourcery g++ lite/bin/../lib/gcc/arm-none-eabi/4.4.1/../../../../arm-none-eabi/lib/thumb2\libc.a(lib_a-signal.o)
 .bss           0x2000c570        0x0 c:/program files/codesourcery/sourcery g++ lite/bin/../lib/gcc/arm-none-eabi/4.4.1/../../../../arm-none-eabi/lib/thumb2\libc.a(lib_a-signalr.o)
 .bss           0x2000c570        0x0 c:/program files/codesourcery/sourcery g++ lite/bin/../lib/gcc/arm-none-eabi/4.4.1/../../../../arm-none-eabi/lib/thumb2\libc.a(lib_a-stdio.o)
 .bss           0x2000c570        0x0 c:/program files/codesourcery/sourcery g++ lite/bin/../lib/gcc/arm-none-eabi/4.4.1/../../../../arm-none-eabi/lib/thumb2\libc.a(lib_a-strcmp.o)
 .bss           0x2000c570        0x0 c:/program files/codesourcery/sourcery g++ lite/bin/../lib/gcc/arm-none-eabi/4.4.1/../../../../arm-none-eabi/lib/thumb2\libc.a(lib_a-writer.o)
 .bss           0x2000c570        0x0 c:/program files/codesourcery/sourcery g++ lite/bin/../lib/gcc/arm-none-eabi/4.4.1/../../../../arm-none-eabi/lib/thumb2\libc.a(lib_a-callocr.o)
 .bss           0x2000c570        0x0 c:/program files/codesourcery/sourcery g++ lite/bin/../lib/gcc/arm-none-eabi/4.4.1/../../../../arm-none-eabi/lib/thumb2\libc.a(lib_a-closer.o)
 .bss           0x2000c570        0x0 c:/program files/codesourcery/sourcery g++ lite/bin/../lib/gcc/arm-none-eabi/4.4.1/../../../../arm-none-eabi/lib/thumb2\libc.a(lib_a-fclose.o)
 .bss           0x2000c570        0x0 c:/program files/codesourcery/sourcery g++ lite/bin/../lib/gcc/arm-none-eabi/4.4.1/../../../../arm-none-eabi/lib/thumb2\libc.a(lib_a-fstatr.o)
 .bss           0x2000c570        0x0 c:/program files/codesourcery/sourcery g++ lite/bin/../lib/gcc/arm-none-eabi/4.4.1/../../../../arm-none-eabi/lib/thumb2\libc.a(lib_a-isattyr.o)
 .bss           0x2000c570        0x0 c:/program files/codesourcery/sourcery g++ lite/bin/../lib/gcc/arm-none-eabi/4.4.1/../../../../arm-none-eabi/lib/thumb2\libc.a(lib_a-lseekr.o)
 .bss           0x2000c570        0x0 c:/program files/codesourcery/sourcery g++ lite/bin/../lib/gcc/arm-none-eabi/4.4.1/../../../../arm-none-eabi/lib/thumb2\libc.a(lib_a-readr.o)
 .bss           0x2000c570        0x0 c:/program files/codesourcery/sourcery g++ lite/bin/../lib/gcc/arm-none-eabi/4.4.1/thumb2\libgcc.a(_udivsi3.o)
 .bss           0x2000c570        0x0 c:/program files/codesourcery/sourcery g++ lite/bin/../lib/gcc/arm-none-eabi/4.4.1/thumb2\libgcc.a(_dvmd_tls.o)
 .bss           0x2000c570        0x0 c:/program files/codesourcery/sourcery g++ lite/bin/../lib/gcc/arm-none-eabi/4.4.1/thumb2\libgcc.a(_arm_addsubdf3.o)
 .bss           0x2000c570        0x0 c:/program files/codesourcery/sourcery g++ lite/bin/../lib/gcc/arm-none-eabi/4.4.1/thumb2\libgcc.a(_arm_muldivdf3.o)
 .bss           0x2000c570        0x0 c:/program files/codesourcery/sourcery g++ lite/bin/../lib/gcc/arm-none-eabi/4.4.1/thumb2\libgcc.a(_arm_cmpdf2.o)
 .bss           0x2000c570        0x0 c:/program files/codesourcery/sourcery g++ lite/bin/../lib/gcc/arm-none-eabi/4.4.1/thumb2\libgcc.a(_arm_fixdfsi.o)
 .bss           0x2000c570        0x0 c:/program files/codesourcery/sourcery g++ lite/bin/../lib/gcc/arm-none-eabi/4.4.1/thumb2\libgcc.a(_aeabi_uldivmod.o)
 .bss           0x2000c570        0x0 c:/program files/codesourcery/sourcery g++ lite/bin/../lib/gcc/arm-none-eabi/4.4.1/thumb2\libgcc.a(bpabi.o)
 .bss           0x2000c570        0x0 c:/program files/codesourcery/sourcery g++ lite/bin/../lib/gcc/arm-none-eabi/4.4.1/thumb2\libgcc.a(_divdi3.o)
 .bss           0x2000c570        0x0 c:/program files/codesourcery/sourcery g++ lite/bin/../lib/gcc/arm-none-eabi/4.4.1/thumb2\libgcc.a(_udivdi3.o)
 *(COMMON)
 COMMON         0x2000c570       0x10 Debug/main.o
                0x2000c570                eventQueue
                0x2000c574                ipcCommandsProcessedQueue
                0x2000c578                ipcCommandsToProcessQueue
                0x2000c57c                g_lcdQueue
 COMMON         0x2000c580        0x9 Debug/drvTask.o
                0x2000c580                bVarIn2
                0x2000c581                bVarOut1
                0x2000c582                bVarIn1
                0x2000c584                abDomain_l
                0x2000c587                bVarOut2
                0x2000c588                bVarOut1Old_l
 *fill*         0x2000c589        0x3 00
 COMMON         0x2000c58c       0x10 Debug/stm32_eth.o
                0x2000c58c                DMAPTPRxDescToGet
                0x2000c590                DMARxDescToGet
                0x2000c594                DMATxDescToSet
                0x2000c598                DMAPTPTxDescToSet
 COMMON         0x2000c59c        0x4 Debug/tasks.o
                0x2000c59c                indirizzo
 COMMON         0x2000c5a0        0x4 Debug/EplDllk.o
                0x2000c5a0                ulTgtDllkFlags
 COMMON         0x2000c5a4        0x8 Debug/EplObd.o
                0x2000c5a4                abEplObdTrashObject_g
 COMMON         0x2000c5ac       0x8c Debug/EdrvF107.o
                0x2000c5ac                xTxDescriptor
                0x2000c5bc                EdrvInstance_l
 COMMON         0x2000c638       0x50 Debug/STM32Timer.o
                0x2000c638                timers_pool
 COMMON         0x2000c688        0x4 c:/program files/codesourcery/sourcery g++ lite/bin/../lib/gcc/arm-none-eabi/4.4.1/../../../../arm-none-eabi/lib/thumb2\libc.a(lib_a-reent.o)
                0x2000c688                errno
                0x2000c68c                _ebss = .
                0x2000c68c                _end = .
                0x2000c68c                __end = .
                0x2000c68c                PROVIDE (_heap, _end)
                0x2000fff8                PROVIDE (_eheap, 0x2000fff8)
OUTPUT(RTOSDemo.axf elf32-littlearm)

.debug_abbrev   0x00000000     0x5a8c
 .debug_abbrev  0x00000000      0x272 Debug/main.o
 .debug_abbrev  0x00000272      0x1ae Debug/stm32f10x_it.o
 .debug_abbrev  0x00000420      0x134 Debug/stf_syscalls_minimal.o
 .debug_abbrev  0x00000554      0x25b Debug/ledTask.o
 .debug_abbrev  0x000007af      0x287 Debug/stm3210c_eval_lcd.o
 .debug_abbrev  0x00000a36      0x32f Debug/drvTask.o
 .debug_abbrev  0x00000d65       0x92 Debug/debugging.o
 .debug_abbrev  0x00000df7      0x203 Debug/LedHandler.o
 .debug_abbrev  0x00000ffa      0x221 Debug/PushButton.o
 .debug_abbrev  0x0000121b       0xd5 Debug/core_cm3.o
 .debug_abbrev  0x000012f0      0x1f7 Debug/system_stm32f10x.o
 .debug_abbrev  0x000014e7      0x1f0 Debug/misc.o
 .debug_abbrev  0x000016d7      0x24d Debug/stm32f10x_rcc.o
 .debug_abbrev  0x00001924      0x297 Debug/stm32f10x_flash.o
 .debug_abbrev  0x00001bbb      0x26f Debug/stm32f10x_gpio.o
 .debug_abbrev  0x00001e2a      0x236 Debug/stm32f10x_tim.o
 .debug_abbrev  0x00002060      0x247 Debug/stm32f10x_spi.o
 .debug_abbrev  0x000022a7      0x293 Debug/stm32_eth.o
 .debug_abbrev  0x0000253a       0xca Debug/list.o
 .debug_abbrev  0x00002604      0x154 Debug/queue.o
 .debug_abbrev  0x00002758      0x196 Debug/tasks.o
 .debug_abbrev  0x000028ee      0x12b Debug/port.o
 .debug_abbrev  0x00002a19      0x167 Debug/heap_2.o
 .debug_abbrev  0x00002b80      0x146 Debug/amiarm.o
 .debug_abbrev  0x00002cc6      0x1d9 Debug/EplApiGeneric.o
 .debug_abbrev  0x00002e9f      0x104 Debug/EplApiProcessImage.o
 .debug_abbrev  0x00002fa3      0x20e Debug/EplDllk.o
 .debug_abbrev  0x000031b1      0x19a Debug/EplDllkCal.o
 .debug_abbrev  0x0000334b      0x1c2 Debug/EplDlluCal.o
 .debug_abbrev  0x0000350d      0x174 Debug/EplErrorHandlerk.o
 .debug_abbrev  0x00003681      0x161 Debug/EplEventk.o
 .debug_abbrev  0x000037e2      0x177 Debug/EplEventu.o
 .debug_abbrev  0x00003959      0x19f Debug/EplIdentu.o
 .debug_abbrev  0x00003af8       0x54 Debug/EplLedu.o
 .debug_abbrev  0x00003b4c      0x1bb Debug/EplNmtCnu.o
 .debug_abbrev  0x00003d07      0x141 Debug/EplNmtk.o
 .debug_abbrev  0x00003e48       0x54 Debug/EplNmtkCal.o
 .debug_abbrev  0x00003e9c       0x54 Debug/EplNmtMnu.o
 .debug_abbrev  0x00003ef0      0x180 Debug/EplNmtu.o
 .debug_abbrev  0x00004070       0x54 Debug/EplNmtuCal.o
 .debug_abbrev  0x000040c4      0x1f5 Debug/EplObd.o
 .debug_abbrev  0x000042b9       0x54 Debug/EplObdkCal.o
 .debug_abbrev  0x0000430d       0x54 Debug/EplObdu.o
 .debug_abbrev  0x00004361       0x54 Debug/EplObduCal.o
 .debug_abbrev  0x000043b5      0x1b8 Debug/EplPdok.o
 .debug_abbrev  0x0000456d      0x1a8 Debug/EplPdokCal.o
 .debug_abbrev  0x00004715      0x100 Debug/EplPdouCal.o
 .debug_abbrev  0x00004815      0x178 Debug/EplPdou.o
 .debug_abbrev  0x0000498d      0x1a4 Debug/EplSdoAsndu.o
 .debug_abbrev  0x00004b31      0x1a8 Debug/EplSdoAsySequ.o
 .debug_abbrev  0x00004cd9      0x1a4 Debug/EplSdoComu.o
 .debug_abbrev  0x00004e7d       0x54 Debug/EplSdoUdpu.o
 .debug_abbrev  0x00004ed1      0x19f Debug/EplStatusu.o
 .debug_abbrev  0x00005070      0x18c Debug/EplTimeruGeneric.o
 .debug_abbrev  0x000051fc       0xfc Debug/EplApiFreeRTOS.o
 .debug_abbrev  0x000052f8      0x107 Debug/Objdict.o
 .debug_abbrev  0x000053ff      0x318 Debug/EdrvF107.o
 .debug_abbrev  0x00005717      0x2a9 Debug/STM32Timer.o
 .debug_abbrev  0x000059c0       0xcc Debug/startup_stm32f10x.o

.debug_info     0x00000000    0x34448
 .debug_info    0x00000000      0xe88 Debug/main.o
 .debug_info    0x00000e88      0xc66 Debug/stm32f10x_it.o
 .debug_info    0x00001aee      0x722 Debug/stf_syscalls_minimal.o
 .debug_info    0x00002210     0x11e1 Debug/ledTask.o
 .debug_info    0x000033f1     0x15b2 Debug/stm3210c_eval_lcd.o
 .debug_info    0x000049a3     0x3916 Debug/drvTask.o
 .debug_info    0x000082b9       0xeb Debug/debugging.o
 .debug_info    0x000083a4      0xe45 Debug/LedHandler.o
 .debug_info    0x000091e9      0xe42 Debug/PushButton.o
 .debug_info    0x0000a02b      0x548 Debug/core_cm3.o
 .debug_info    0x0000a573      0xe09 Debug/system_stm32f10x.o
 .debug_info    0x0000b37c      0xd66 Debug/misc.o
 .debug_info    0x0000c0e2     0x1658 Debug/stm32f10x_rcc.o
 .debug_info    0x0000d73a     0x1274 Debug/stm32f10x_flash.o
 .debug_info    0x0000e9ae     0x120f Debug/stm32f10x_gpio.o
 .debug_info    0x0000fbbd     0x293b Debug/stm32f10x_tim.o
 .debug_info    0x000124f8     0x155f Debug/stm32f10x_spi.o
 .debug_info    0x00013a57     0x28bc Debug/stm32_eth.o
 .debug_info    0x00016313      0x2b1 Debug/list.o
 .debug_info    0x000165c4      0x739 Debug/queue.o
 .debug_info    0x00016cfd      0xaa8 Debug/tasks.o
 .debug_info    0x000177a5      0x1d1 Debug/port.o
 .debug_info    0x00017976      0x2b3 Debug/heap_2.o
 .debug_info    0x00017c29      0x8b4 Debug/amiarm.o
 .debug_info    0x000184dd     0x1e78 Debug/EplApiGeneric.o
 .debug_info    0x0001a355      0x437 Debug/EplApiProcessImage.o
 .debug_info    0x0001a78c     0x22af Debug/EplDllk.o
 .debug_info    0x0001ca3b     0x12d8 Debug/EplDllkCal.o
 .debug_info    0x0001dd13     0x1231 Debug/EplDlluCal.o
 .debug_info    0x0001ef44      0x96c Debug/EplErrorHandlerk.o
 .debug_info    0x0001f8b0      0x907 Debug/EplEventk.o
 .debug_info    0x000201b7      0x883 Debug/EplEventu.o
 .debug_info    0x00020a3a      0xdd1 Debug/EplIdentu.o
 .debug_info    0x0002180b       0x97 Debug/EplLedu.o
 .debug_info    0x000218a2     0x1023 Debug/EplNmtCnu.o
 .debug_info    0x000228c5      0x871 Debug/EplNmtk.o
 .debug_info    0x00023136       0x97 Debug/EplNmtkCal.o
 .debug_info    0x000231cd       0xa5 Debug/EplNmtMnu.o
 .debug_info    0x00023272      0x959 Debug/EplNmtu.o
 .debug_info    0x00023bcb       0x97 Debug/EplNmtuCal.o
 .debug_info    0x00023c62     0x1b39 Debug/EplObd.o
 .debug_info    0x0002579b       0xa5 Debug/EplObdkCal.o
 .debug_info    0x00025840       0xa5 Debug/EplObdu.o
 .debug_info    0x000258e5       0xa5 Debug/EplObduCal.o
 .debug_info    0x0002598a     0x113d Debug/EplPdok.o
 .debug_info    0x00026ac7      0xe9a Debug/EplPdokCal.o
 .debug_info    0x00027961      0x6e8 Debug/EplPdouCal.o
 .debug_info    0x00028049      0xe7d Debug/EplPdou.o
 .debug_info    0x00028ec6      0xeca Debug/EplSdoAsndu.o
 .debug_info    0x00029d90     0x176c Debug/EplSdoAsySequ.o
 .debug_info    0x0002b4fc     0x18f1 Debug/EplSdoComu.o
 .debug_info    0x0002cded       0x97 Debug/EplSdoUdpu.o
 .debug_info    0x0002ce84      0xd14 Debug/EplStatusu.o
 .debug_info    0x0002db98      0x967 Debug/EplTimeruGeneric.o
 .debug_info    0x0002e4ff      0x896 Debug/EplApiFreeRTOS.o
 .debug_info    0x0002ed95     0x150a Debug/Objdict.o
 .debug_info    0x0003029f     0x293b Debug/EdrvF107.o
 .debug_info    0x00032bda     0x1744 Debug/STM32Timer.o
 .debug_info    0x0003431e      0x12a Debug/startup_stm32f10x.o

.debug_line     0x00000000     0xbfb0
 .debug_line    0x00000000      0x445 Debug/main.o
 .debug_line    0x00000445      0x382 Debug/stm32f10x_it.o
 .debug_line    0x000007c7      0x2a6 Debug/stf_syscalls_minimal.o
 .debug_line    0x00000a6d      0x46b Debug/ledTask.o
 .debug_line    0x00000ed8      0x6e4 Debug/stm3210c_eval_lcd.o
 .debug_line    0x000015bc      0x813 Debug/drvTask.o
 .debug_line    0x00001dcf       0x5b Debug/debugging.o
 .debug_line    0x00001e2a      0x3e6 Debug/LedHandler.o
 .debug_line    0x00002210      0x3b3 Debug/PushButton.o
 .debug_line    0x000025c3      0x2a0 Debug/core_cm3.o
 .debug_line    0x00002863      0x37b Debug/system_stm32f10x.o
 .debug_line    0x00002bde      0x432 Debug/misc.o
 .debug_line    0x00003010      0x79d Debug/stm32f10x_rcc.o
 .debug_line    0x000037ad      0x66d Debug/stm32f10x_flash.o
 .debug_line    0x00003e1a      0x5a5 Debug/stm32f10x_gpio.o
 .debug_line    0x000043bf      0xc7f Debug/stm32f10x_tim.o
 .debug_line    0x0000503e      0x623 Debug/stm32f10x_spi.o
 .debug_line    0x00005661      0xde2 Debug/stm32_eth.o
 .debug_line    0x00006443      0x122 Debug/list.o
 .debug_line    0x00006565      0x30b Debug/queue.o
 .debug_line    0x00006870      0x37f Debug/tasks.o
 .debug_line    0x00006bef      0x152 Debug/port.o
 .debug_line    0x00006d41      0x122 Debug/heap_2.o
 .debug_line    0x00006e63      0x31c Debug/amiarm.o
 .debug_line    0x0000717f      0x50f Debug/EplApiGeneric.o
 .debug_line    0x0000768e       0xee Debug/EplApiProcessImage.o
 .debug_line    0x0000777c      0x7bb Debug/EplDllk.o
 .debug_line    0x00007f37      0x21f Debug/EplDllkCal.o
 .debug_line    0x00008156      0x1e0 Debug/EplDlluCal.o
 .debug_line    0x00008336      0x1a4 Debug/EplErrorHandlerk.o
 .debug_line    0x000084da      0x197 Debug/EplEventk.o
 .debug_line    0x00008671      0x17c Debug/EplEventu.o
 .debug_line    0x000087ed      0x1cc Debug/EplIdentu.o
 .debug_line    0x000089b9       0x2b Debug/EplLedu.o
 .debug_line    0x000089e4      0x223 Debug/EplNmtCnu.o
 .debug_line    0x00008c07      0x258 Debug/EplNmtk.o
 .debug_line    0x00008e5f       0x2b Debug/EplNmtkCal.o
 .debug_line    0x00008e8a       0x2b Debug/EplNmtMnu.o
 .debug_line    0x00008eb5      0x1e2 Debug/EplNmtu.o
 .debug_line    0x00009097       0x2b Debug/EplNmtuCal.o
 .debug_line    0x000090c2      0x627 Debug/EplObd.o
 .debug_line    0x000096e9       0x2b Debug/EplObdkCal.o
 .debug_line    0x00009714       0x2b Debug/EplObdu.o
 .debug_line    0x0000973f       0x2b Debug/EplObduCal.o
 .debug_line    0x0000976a      0x276 Debug/EplPdok.o
 .debug_line    0x000099e0      0x139 Debug/EplPdokCal.o
 .debug_line    0x00009b19      0x119 Debug/EplPdouCal.o
 .debug_line    0x00009c32      0x2f2 Debug/EplPdou.o
 .debug_line    0x00009f24      0x1a4 Debug/EplSdoAsndu.o
 .debug_line    0x0000a0c8      0x511 Debug/EplSdoAsySequ.o
 .debug_line    0x0000a5d9      0x5fa Debug/EplSdoComu.o
 .debug_line    0x0000abd3       0x2b Debug/EplSdoUdpu.o
 .debug_line    0x0000abfe      0x18d Debug/EplStatusu.o
 .debug_line    0x0000ad8b      0x204 Debug/EplTimeruGeneric.o
 .debug_line    0x0000af8f      0x177 Debug/EplApiFreeRTOS.o
 .debug_line    0x0000b106      0x14a Debug/Objdict.o
 .debug_line    0x0000b250      0x6ae Debug/EdrvF107.o
 .debug_line    0x0000b8fe      0x5e2 Debug/STM32Timer.o
 .debug_line    0x0000bee0       0xd0 Debug/startup_stm32f10x.o

.debug_frame    0x00000000     0xa078
 .debug_frame   0x00000000      0x3b8 Debug/main.o
 .debug_frame   0x000003b8      0x3b4 Debug/stm32f10x_it.o
 .debug_frame   0x0000076c      0x214 Debug/stf_syscalls_minimal.o
 .debug_frame   0x00000980      0x3a4 Debug/ledTask.o
 .debug_frame   0x00000d24      0x68c Debug/stm3210c_eval_lcd.o
 .debug_frame   0x000013b0      0x588 Debug/drvTask.o
 .debug_frame   0x00001938       0x50 Debug/debugging.o
 .debug_frame   0x00001988      0x388 Debug/LedHandler.o
 .debug_frame   0x00001d10      0x34c Debug/PushButton.o
 .debug_frame   0x0000205c      0x248 Debug/core_cm3.o
 .debug_frame   0x000022a4      0x360 Debug/system_stm32f10x.o
 .debug_frame   0x00002604      0x398 Debug/misc.o
 .debug_frame   0x0000299c      0x78c Debug/stm32f10x_rcc.o
 .debug_frame   0x00003128      0x5d4 Debug/stm32f10x_flash.o
 .debug_frame   0x000036fc      0x508 Debug/stm32f10x_gpio.o
 .debug_frame   0x00003c04      0xd1c Debug/stm32f10x_tim.o
 .debug_frame   0x00004920      0x598 Debug/stm32f10x_spi.o
 .debug_frame   0x00004eb8      0xdec Debug/stm32_eth.o
 .debug_frame   0x00005ca4       0x9c Debug/list.o
 .debug_frame   0x00005d40      0x1e4 Debug/queue.o
 .debug_frame   0x00005f24      0x318 Debug/tasks.o
 .debug_frame   0x0000623c      0x124 Debug/port.o
 .debug_frame   0x00006360       0x88 Debug/heap_2.o
 .debug_frame   0x000063e8      0x398 Debug/amiarm.o
 .debug_frame   0x00006780      0x234 Debug/EplApiGeneric.o
 .debug_frame   0x000069b4       0x64 Debug/EplApiProcessImage.o
 .debug_frame   0x00006a18      0x37c Debug/EplDllk.o
 .debug_frame   0x00006d94      0x11c Debug/EplDllkCal.o
 .debug_frame   0x00006eb0      0x110 Debug/EplDlluCal.o
 .debug_frame   0x00006fc0       0xac Debug/EplErrorHandlerk.o
 .debug_frame   0x0000706c       0xc8 Debug/EplEventk.o
 .debug_frame   0x00007134       0xc8 Debug/EplEventu.o
 .debug_frame   0x000071fc      0x108 Debug/EplIdentu.o
 .debug_frame   0x00007304      0x104 Debug/EplNmtCnu.o
 .debug_frame   0x00007408       0x88 Debug/EplNmtk.o
 .debug_frame   0x00007490       0xe4 Debug/EplNmtu.o
 .debug_frame   0x00007574      0x438 Debug/EplObd.o
 .debug_frame   0x000079ac      0x130 Debug/EplPdok.o
 .debug_frame   0x00007adc       0x8c Debug/EplPdokCal.o
 .debug_frame   0x00007b68       0x88 Debug/EplPdouCal.o
 .debug_frame   0x00007bf0      0x1b8 Debug/EplPdou.o
 .debug_frame   0x00007da8       0xe8 Debug/EplSdoAsndu.o
 .debug_frame   0x00007e90      0x220 Debug/EplSdoAsySequ.o
 .debug_frame   0x000080b0      0x288 Debug/EplSdoComu.o
 .debug_frame   0x00008338       0xcc Debug/EplStatusu.o
 .debug_frame   0x00008404      0x164 Debug/EplTimeruGeneric.o
 .debug_frame   0x00008568       0x90 Debug/EplApiFreeRTOS.o
 .debug_frame   0x000085f8       0x30 Debug/Objdict.o
 .debug_frame   0x00008628      0x558 Debug/EdrvF107.o
 .debug_frame   0x00008b80      0x464 Debug/STM32Timer.o
 .debug_frame   0x00008fe4       0x50 Debug/startup_stm32f10x.o
 .debug_frame   0x00009034       0x34 c:/program files/codesourcery/sourcery g++ lite/bin/../lib/gcc/arm-none-eabi/4.4.1/../../../../arm-none-eabi/lib/thumb2\libc.a(lib_a-assert.o)
 .debug_frame   0x00009068       0x60 c:/program files/codesourcery/sourcery g++ lite/bin/../lib/gcc/arm-none-eabi/4.4.1/../../../../arm-none-eabi/lib/thumb2\libc.a(lib_a-fiprintf.o)
 .debug_frame   0x000090c8       0x38 c:/program files/codesourcery/sourcery g++ lite/bin/../lib/gcc/arm-none-eabi/4.4.1/../../../../arm-none-eabi/lib/thumb2\libc.a(lib_a-memcpy.o)
 .debug_frame   0x00009100       0x2c c:/program files/codesourcery/sourcery g++ lite/bin/../lib/gcc/arm-none-eabi/4.4.1/../../../../arm-none-eabi/lib/thumb2\libc.a(lib_a-memset.o)
 .debug_frame   0x0000912c       0x64 c:/program files/codesourcery/sourcery g++ lite/bin/../lib/gcc/arm-none-eabi/4.4.1/../../../../arm-none-eabi/lib/thumb2\libc.a(lib_a-printf.o)
 .debug_frame   0x00009190       0x70 c:/program files/codesourcery/sourcery g++ lite/bin/../lib/gcc/arm-none-eabi/4.4.1/../../../../arm-none-eabi/lib/thumb2\libc.a(lib_a-reent.o)
 .debug_frame   0x00009200       0x20 c:/program files/codesourcery/sourcery g++ lite/bin/../lib/gcc/arm-none-eabi/4.4.1/../../../../arm-none-eabi/lib/thumb2\libc.a(lib_a-strlen.o)
 .debug_frame   0x00009220       0x2c c:/program files/codesourcery/sourcery g++ lite/bin/../lib/gcc/arm-none-eabi/4.4.1/../../../../arm-none-eabi/lib/thumb2\libc.a(lib_a-strncpy.o)
 .debug_frame   0x0000924c       0x80 c:/program files/codesourcery/sourcery g++ lite/bin/../lib/gcc/arm-none-eabi/4.4.1/../../../../arm-none-eabi/lib/thumb2\libc.a(lib_a-vfiprintf.o)
 .debug_frame   0x000092cc       0x80 c:/program files/codesourcery/sourcery g++ lite/bin/../lib/gcc/arm-none-eabi/4.4.1/../../../../arm-none-eabi/lib/thumb2\libc.a(lib_a-vfprintf.o)
 .debug_frame   0x0000934c       0x30 c:/program files/codesourcery/sourcery g++ lite/bin/../lib/gcc/arm-none-eabi/4.4.1/../../../../arm-none-eabi/lib/thumb2\libc.a(lib_a-wsetup.o)
 .debug_frame   0x0000937c       0x20 c:/program files/codesourcery/sourcery g++ lite/bin/../lib/gcc/arm-none-eabi/4.4.1/../../../../arm-none-eabi/lib/thumb2\libc.a(lib_a-abort.o)
 .debug_frame   0x0000939c       0x78 c:/program files/codesourcery/sourcery g++ lite/bin/../lib/gcc/arm-none-eabi/4.4.1/../../../../arm-none-eabi/lib/thumb2\libc.a(lib_a-dtoa.o)
 .debug_frame   0x00009414       0x54 c:/program files/codesourcery/sourcery g++ lite/bin/../lib/gcc/arm-none-eabi/4.4.1/../../../../arm-none-eabi/lib/thumb2\libc.a(lib_a-fflush.o)
 .debug_frame   0x00009468      0x15c c:/program files/codesourcery/sourcery g++ lite/bin/../lib/gcc/arm-none-eabi/4.4.1/../../../../arm-none-eabi/lib/thumb2\libc.a(lib_a-findfp.o)
 .debug_frame   0x000095c4       0x60 c:/program files/codesourcery/sourcery g++ lite/bin/../lib/gcc/arm-none-eabi/4.4.1/../../../../arm-none-eabi/lib/thumb2\libc.a(lib_a-freer.o)
 .debug_frame   0x00009624       0x44 c:/program files/codesourcery/sourcery g++ lite/bin/../lib/gcc/arm-none-eabi/4.4.1/../../../../arm-none-eabi/lib/thumb2\libc.a(lib_a-fvwrite.o)
 .debug_frame   0x00009668       0x64 c:/program files/codesourcery/sourcery g++ lite/bin/../lib/gcc/arm-none-eabi/4.4.1/../../../../arm-none-eabi/lib/thumb2\libc.a(lib_a-fwalk.o)
 .debug_frame   0x000096cc       0x7c c:/program files/codesourcery/sourcery g++ lite/bin/../lib/gcc/arm-none-eabi/4.4.1/../../../../arm-none-eabi/lib/thumb2\libc.a(lib_a-locale.o)
 .debug_frame   0x00009748       0x38 c:/program files/codesourcery/sourcery g++ lite/bin/../lib/gcc/arm-none-eabi/4.4.1/../../../../arm-none-eabi/lib/thumb2\libc.a(lib_a-makebuf.o)
 .debug_frame   0x00009780       0x48 c:/program files/codesourcery/sourcery g++ lite/bin/../lib/gcc/arm-none-eabi/4.4.1/../../../../arm-none-eabi/lib/thumb2\libc.a(lib_a-malloc.o)
 .debug_frame   0x000097c8       0x44 c:/program files/codesourcery/sourcery g++ lite/bin/../lib/gcc/arm-none-eabi/4.4.1/../../../../arm-none-eabi/lib/thumb2\libc.a(lib_a-mallocr.o)
 .debug_frame   0x0000980c       0x28 c:/program files/codesourcery/sourcery g++ lite/bin/../lib/gcc/arm-none-eabi/4.4.1/../../../../arm-none-eabi/lib/thumb2\libc.a(lib_a-memchr.o)
 .debug_frame   0x00009834       0x2c c:/program files/codesourcery/sourcery g++ lite/bin/../lib/gcc/arm-none-eabi/4.4.1/../../../../arm-none-eabi/lib/thumb2\libc.a(lib_a-memmove.o)
 .debug_frame   0x00009860       0x30 c:/program files/codesourcery/sourcery g++ lite/bin/../lib/gcc/arm-none-eabi/4.4.1/../../../../arm-none-eabi/lib/thumb2\libc.a(lib_a-mlock.o)
 .debug_frame   0x00009890      0x290 c:/program files/codesourcery/sourcery g++ lite/bin/../lib/gcc/arm-none-eabi/4.4.1/../../../../arm-none-eabi/lib/thumb2\libc.a(lib_a-mprec.o)
 .debug_frame   0x00009b20       0x44 c:/program files/codesourcery/sourcery g++ lite/bin/../lib/gcc/arm-none-eabi/4.4.1/../../../../arm-none-eabi/lib/thumb2\libc.a(lib_a-reallocr.o)
 .debug_frame   0x00009b64       0x20 c:/program files/codesourcery/sourcery g++ lite/bin/../lib/gcc/arm-none-eabi/4.4.1/../../../../arm-none-eabi/lib/thumb2\libc.a(lib_a-s_isinfd.o)
 .debug_frame   0x00009b84       0x20 c:/program files/codesourcery/sourcery g++ lite/bin/../lib/gcc/arm-none-eabi/4.4.1/../../../../arm-none-eabi/lib/thumb2\libc.a(lib_a-s_isnand.o)
 .debug_frame   0x00009ba4       0x30 c:/program files/codesourcery/sourcery g++ lite/bin/../lib/gcc/arm-none-eabi/4.4.1/../../../../arm-none-eabi/lib/thumb2\libc.a(lib_a-sbrkr.o)
 .debug_frame   0x00009bd4       0xf8 c:/program files/codesourcery/sourcery g++ lite/bin/../lib/gcc/arm-none-eabi/4.4.1/../../../../arm-none-eabi/lib/thumb2\libc.a(lib_a-signal.o)
 .debug_frame   0x00009ccc       0x4c c:/program files/codesourcery/sourcery g++ lite/bin/../lib/gcc/arm-none-eabi/4.4.1/../../../../arm-none-eabi/lib/thumb2\libc.a(lib_a-signalr.o)
 .debug_frame   0x00009d18       0x8c c:/program files/codesourcery/sourcery g++ lite/bin/../lib/gcc/arm-none-eabi/4.4.1/../../../../arm-none-eabi/lib/thumb2\libc.a(lib_a-stdio.o)
 .debug_frame   0x00009da4       0x30 c:/program files/codesourcery/sourcery g++ lite/bin/../lib/gcc/arm-none-eabi/4.4.1/../../../../arm-none-eabi/lib/thumb2\libc.a(lib_a-strcmp.o)
 .debug_frame   0x00009dd4       0x30 c:/program files/codesourcery/sourcery g++ lite/bin/../lib/gcc/arm-none-eabi/4.4.1/../../../../arm-none-eabi/lib/thumb2\libc.a(lib_a-writer.o)
 .debug_frame   0x00009e04       0x30 c:/program files/codesourcery/sourcery g++ lite/bin/../lib/gcc/arm-none-eabi/4.4.1/../../../../arm-none-eabi/lib/thumb2\libc.a(lib_a-callocr.o)
 .debug_frame   0x00009e34       0x30 c:/program files/codesourcery/sourcery g++ lite/bin/../lib/gcc/arm-none-eabi/4.4.1/../../../../arm-none-eabi/lib/thumb2\libc.a(lib_a-closer.o)
 .debug_frame   0x00009e64       0x4c c:/program files/codesourcery/sourcery g++ lite/bin/../lib/gcc/arm-none-eabi/4.4.1/../../../../arm-none-eabi/lib/thumb2\libc.a(lib_a-fclose.o)
 .debug_frame   0x00009eb0       0x30 c:/program files/codesourcery/sourcery g++ lite/bin/../lib/gcc/arm-none-eabi/4.4.1/../../../../arm-none-eabi/lib/thumb2\libc.a(lib_a-fstatr.o)
 .debug_frame   0x00009ee0       0x30 c:/program files/codesourcery/sourcery g++ lite/bin/../lib/gcc/arm-none-eabi/4.4.1/../../../../arm-none-eabi/lib/thumb2\libc.a(lib_a-isattyr.o)
 .debug_frame   0x00009f10       0x30 c:/program files/codesourcery/sourcery g++ lite/bin/../lib/gcc/arm-none-eabi/4.4.1/../../../../arm-none-eabi/lib/thumb2\libc.a(lib_a-lseekr.o)
 .debug_frame   0x00009f40       0x30 c:/program files/codesourcery/sourcery g++ lite/bin/../lib/gcc/arm-none-eabi/4.4.1/../../../../arm-none-eabi/lib/thumb2\libc.a(lib_a-readr.o)
 .debug_frame   0x00009f70       0x20 c:/program files/codesourcery/sourcery g++ lite/bin/../lib/gcc/arm-none-eabi/4.4.1/thumb2\libgcc.a(_udivsi3.o)
 .debug_frame   0x00009f90       0x60 c:/program files/codesourcery/sourcery g++ lite/bin/../lib/gcc/arm-none-eabi/4.4.1/thumb2\libgcc.a(bpabi.o)
 .debug_frame   0x00009ff0       0x44 c:/program files/codesourcery/sourcery g++ lite/bin/../lib/gcc/arm-none-eabi/4.4.1/thumb2\libgcc.a(_divdi3.o)
 .debug_frame   0x0000a034       0x44 c:/program files/codesourcery/sourcery g++ lite/bin/../lib/gcc/arm-none-eabi/4.4.1/thumb2\libgcc.a(_udivdi3.o)

.debug_loc      0x00000000     0xf9b8
 .debug_loc     0x00000000      0x64b Debug/main.o
 .debug_loc     0x0000064b      0x627 Debug/stm32f10x_it.o
 .debug_loc     0x00000c72      0x3c6 Debug/stf_syscalls_minimal.o
 .debug_loc     0x00001038      0x62c Debug/ledTask.o
 .debug_loc     0x00001664      0xb0c Debug/stm3210c_eval_lcd.o
 .debug_loc     0x00002170      0x943 Debug/drvTask.o
 .debug_loc     0x00002ab3       0x6e Debug/debugging.o
 .debug_loc     0x00002b21      0x601 Debug/LedHandler.o
 .debug_loc     0x00003122      0x593 Debug/PushButton.o
 .debug_loc     0x000036b5      0x3de Debug/core_cm3.o
 .debug_loc     0x00003a93      0x5b2 Debug/system_stm32f10x.o
 .debug_loc     0x00004045      0x638 Debug/misc.o
 .debug_loc     0x0000467d      0xdd0 Debug/stm32f10x_rcc.o
 .debug_loc     0x0000544d      0xa1d Debug/stm32f10x_flash.o
 .debug_loc     0x00005e6a      0x8f7 Debug/stm32f10x_gpio.o
 .debug_loc     0x00006761     0x18b2 Debug/stm32f10x_tim.o
 .debug_loc     0x00008013      0xa16 Debug/stm32f10x_spi.o
 .debug_loc     0x00008a29     0x1962 Debug/stm32_eth.o
 .debug_loc     0x0000a38b      0x113 Debug/list.o
 .debug_loc     0x0000a49e      0x339 Debug/queue.o
 .debug_loc     0x0000a7d7      0x52f Debug/tasks.o
 .debug_loc     0x0000ad06      0x170 Debug/port.o
 .debug_loc     0x0000ae76       0xc4 Debug/heap_2.o
 .debug_loc     0x0000af3a      0x672 Debug/amiarm.o
 .debug_loc     0x0000b5ac      0x3b3 Debug/EplApiGeneric.o
 .debug_loc     0x0000b95f       0xa5 Debug/EplApiProcessImage.o
 .debug_loc     0x0000ba04      0x606 Debug/EplDllk.o
 .debug_loc     0x0000c00a      0x1ef Debug/EplDllkCal.o
 .debug_loc     0x0000c1f9      0x1b8 Debug/EplDlluCal.o
 .debug_loc     0x0000c3b1      0x113 Debug/EplErrorHandlerk.o
 .debug_loc     0x0000c4c4      0x14c Debug/EplEventk.o
 .debug_loc     0x0000c610      0x14c Debug/EplEventu.o
 .debug_loc     0x0000c75c      0x1b8 Debug/EplIdentu.o
 .debug_loc     0x0000c914      0x1ba Debug/EplNmtCnu.o
 .debug_loc     0x0000cace       0xdc Debug/EplNmtk.o
 .debug_loc     0x0000cbaa      0x175 Debug/EplNmtu.o
 .debug_loc     0x0000cd1f      0x74e Debug/EplObd.o
 .debug_loc     0x0000d46d      0x1e3 Debug/EplPdok.o
 .debug_loc     0x0000d650       0xd0 Debug/EplPdokCal.o
 .debug_loc     0x0000d720       0xc4 Debug/EplPdouCal.o
 .debug_loc     0x0000d7e4      0x2c7 Debug/EplPdou.o
 .debug_loc     0x0000daab      0x181 Debug/EplSdoAsndu.o
 .debug_loc     0x0000dc2c      0x3a9 Debug/EplSdoAsySequ.o
 .debug_loc     0x0000dfd5      0x454 Debug/EplSdoComu.o
 .debug_loc     0x0000e429      0x14a Debug/EplStatusu.o
 .debug_loc     0x0000e573      0x251 Debug/EplTimeruGeneric.o
 .debug_loc     0x0000e7c4       0xe4 Debug/EplApiFreeRTOS.o
 .debug_loc     0x0000e8a8       0x37 Debug/Objdict.o
 .debug_loc     0x0000e8df      0x92e Debug/EdrvF107.o
 .debug_loc     0x0000f20d      0x779 Debug/STM32Timer.o
 .debug_loc     0x0000f986       0x32 Debug/startup_stm32f10x.o

.debug_pubnames
                0x00000000     0x42cb
 .debug_pubnames
                0x00000000       0xdb Debug/main.o
 .debug_pubnames
                0x000000db       0x8f Debug/stm32f10x_it.o
 .debug_pubnames
                0x0000016a       0xea Debug/stf_syscalls_minimal.o
 .debug_pubnames
                0x00000254       0x33 Debug/ledTask.o
 .debug_pubnames
                0x00000287      0x260 Debug/stm3210c_eval_lcd.o
 .debug_pubnames
                0x000004e7      0x1e4 Debug/drvTask.o
 .debug_pubnames
                0x000006cb       0x29 Debug/debugging.o
 .debug_pubnames
                0x000006f4       0x70 Debug/LedHandler.o
 .debug_pubnames
                0x00000764       0x6a Debug/PushButton.o
 .debug_pubnames
                0x000007ce      0x159 Debug/core_cm3.o
 .debug_pubnames
                0x00000927       0xa3 Debug/system_stm32f10x.o
 .debug_pubnames
                0x000009ca       0x89 Debug/misc.o
 .debug_pubnames
                0x00000a53      0x37e Debug/stm32f10x_rcc.o
 .debug_pubnames
                0x00000dd1      0x26e Debug/stm32f10x_flash.o
 .debug_pubnames
                0x0000103f      0x19d Debug/stm32f10x_gpio.o
 .debug_pubnames
                0x000011dc      0x7b0 Debug/stm32f10x_tim.o
 .debug_pubnames
                0x0000198c      0x1f6 Debug/stm32f10x_spi.o
 .debug_pubnames
                0x00001b82      0xb7f Debug/stm32_eth.o
 .debug_pubnames
                0x00002701       0x71 Debug/list.o
 .debug_pubnames
                0x00002772      0x111 Debug/queue.o
 .debug_pubnames
                0x00002883      0x1f8 Debug/tasks.o
 .debug_pubnames
                0x00002a7b      0x101 Debug/port.o
 .debug_pubnames
                0x00002b7c       0x64 Debug/heap_2.o
 .debug_pubnames
                0x00002be0      0x2aa Debug/amiarm.o
 .debug_pubnames
                0x00002e8a      0x122 Debug/EplApiGeneric.o
 .debug_pubnames
                0x00002fac       0x71 Debug/EplApiProcessImage.o
 .debug_pubnames
                0x0000301d      0x137 Debug/EplDllk.o
 .debug_pubnames
                0x00003154      0x10c Debug/EplDllkCal.o
 .debug_pubnames
                0x00003260       0xc0 Debug/EplDlluCal.o
 .debug_pubnames
                0x00003320       0x87 Debug/EplErrorHandlerk.o
 .debug_pubnames
                0x000033a7       0x94 Debug/EplEventk.o
 .debug_pubnames
                0x0000343b       0x94 Debug/EplEventu.o
 .debug_pubnames
                0x000034cf       0xc9 Debug/EplIdentu.o
 .debug_pubnames
                0x00003598       0x94 Debug/EplNmtCnu.o
 .debug_pubnames
                0x0000362c       0x63 Debug/EplNmtk.o
 .debug_pubnames
                0x0000368f       0xb4 Debug/EplNmtu.o
 .debug_pubnames
                0x00003743      0x1ba Debug/EplObd.o
 .debug_pubnames
                0x000038fd       0x82 Debug/EplPdok.o
 .debug_pubnames
                0x0000397f       0x5c Debug/EplPdokCal.o
 .debug_pubnames
                0x000039db       0x79 Debug/EplPdouCal.o
 .debug_pubnames
                0x00003a54       0x73 Debug/EplPdou.o
 .debug_pubnames
                0x00003ac7       0xb3 Debug/EplSdoAsndu.o
 .debug_pubnames
                0x00003b7a       0xdb Debug/EplSdoAsySequ.o
 .debug_pubnames
                0x00003c55      0x114 Debug/EplSdoComu.o
 .debug_pubnames
                0x00003d69       0x91 Debug/EplStatusu.o
 .debug_pubnames
                0x00003dfa       0xd6 Debug/EplTimeruGeneric.o
 .debug_pubnames
                0x00003ed0       0x92 Debug/EplApiFreeRTOS.o
 .debug_pubnames
                0x00003f62       0x24 Debug/Objdict.o
 .debug_pubnames
                0x00003f86      0x193 Debug/EdrvF107.o
 .debug_pubnames
                0x00004119      0x14a Debug/STM32Timer.o
 .debug_pubnames
                0x00004263       0x68 Debug/startup_stm32f10x.o

.debug_aranges  0x00000000     0x2b80
 .debug_aranges
                0x00000000      0x120 Debug/main.o
 .debug_aranges
                0x00000120      0x120 Debug/stm32f10x_it.o
 .debug_aranges
                0x00000240       0xa8 Debug/stf_syscalls_minimal.o
 .debug_aranges
                0x000002e8      0x118 Debug/ledTask.o
 .debug_aranges
                0x00000400      0x1d8 Debug/stm3210c_eval_lcd.o
 .debug_aranges
                0x000005d8      0x190 Debug/drvTask.o
 .debug_aranges
                0x00000768       0x28 Debug/debugging.o
 .debug_aranges
                0x00000790      0x110 Debug/LedHandler.o
 .debug_aranges
                0x000008a0      0x100 Debug/PushButton.o
 .debug_aranges
                0x000009a0       0xc8 Debug/core_cm3.o
 .debug_aranges
                0x00000a68      0x108 Debug/system_stm32f10x.o
 .debug_aranges
                0x00000b70      0x118 Debug/misc.o
 .debug_aranges
                0x00000c88      0x238 Debug/stm32f10x_rcc.o
 .debug_aranges
                0x00000ec0      0x1b0 Debug/stm32f10x_flash.o
 .debug_aranges
                0x00001070      0x180 Debug/stm32f10x_gpio.o
 .debug_aranges
                0x000011f0      0x3c8 Debug/stm32f10x_tim.o
 .debug_aranges
                0x000015b8      0x1a8 Debug/stm32f10x_spi.o
 .debug_aranges
                0x00001760      0x408 Debug/stm32_eth.o
 .debug_aranges
                0x00001b68       0x40 Debug/list.o
 .debug_aranges
                0x00001ba8       0x90 Debug/queue.o
 .debug_aranges
                0x00001c38       0xe0 Debug/tasks.o
 .debug_aranges
                0x00001d18       0x70 Debug/port.o
 .debug_aranges
                0x00001d88       0x38 Debug/heap_2.o
 .debug_aranges
                0x00001dc0      0x108 Debug/amiarm.o
 .debug_aranges
                0x00001ec8       0xa0 Debug/EplApiGeneric.o
 .debug_aranges
                0x00001f68       0x30 Debug/EplApiProcessImage.o
 .debug_aranges
                0x00001f98       0xf8 Debug/EplDllk.o
 .debug_aranges
                0x00002090       0x60 Debug/EplDllkCal.o
 .debug_aranges
                0x000020f0       0x58 Debug/EplDlluCal.o
 .debug_aranges
                0x00002148       0x40 Debug/EplErrorHandlerk.o
 .debug_aranges
                0x00002188       0x48 Debug/EplEventk.o
 .debug_aranges
                0x000021d0       0x48 Debug/EplEventu.o
 .debug_aranges
                0x00002218       0x58 Debug/EplIdentu.o
 .debug_aranges
                0x00002270       0x58 Debug/EplNmtCnu.o
 .debug_aranges
                0x000022c8       0x38 Debug/EplNmtk.o
 .debug_aranges
                0x00002300       0x50 Debug/EplNmtu.o
 .debug_aranges
                0x00002350      0x128 Debug/EplObd.o
 .debug_aranges
                0x00002478       0x60 Debug/EplPdok.o
 .debug_aranges
                0x000024d8       0x38 Debug/EplPdokCal.o
 .debug_aranges
                0x00002510       0x38 Debug/EplPdouCal.o
 .debug_aranges
                0x00002548       0x80 Debug/EplPdou.o
 .debug_aranges
                0x000025c8       0x50 Debug/EplSdoAsndu.o
 .debug_aranges
                0x00002618       0xa0 Debug/EplSdoAsySequ.o
 .debug_aranges
                0x000026b8       0xb8 Debug/EplSdoComu.o
 .debug_aranges
                0x00002770       0x48 Debug/EplStatusu.o
 .debug_aranges
                0x000027b8       0x70 Debug/EplTimeruGeneric.o
 .debug_aranges
                0x00002828       0x38 Debug/EplApiFreeRTOS.o
 .debug_aranges
                0x00002860       0x20 Debug/Objdict.o
 .debug_aranges
                0x00002880      0x188 Debug/EdrvF107.o
 .debug_aranges
                0x00002a08      0x148 Debug/STM32Timer.o
 .debug_aranges
                0x00002b50       0x30 Debug/startup_stm32f10x.o

.debug_ranges   0x00000000     0x2af0
 .debug_ranges  0x00000000      0x118 Debug/main.o
 .debug_ranges  0x00000118      0x118 Debug/stm32f10x_it.o
 .debug_ranges  0x00000230       0xa0 Debug/stf_syscalls_minimal.o
 .debug_ranges  0x000002d0      0x110 Debug/ledTask.o
 .debug_ranges  0x000003e0      0x1d0 Debug/stm3210c_eval_lcd.o
 .debug_ranges  0x000005b0      0x188 Debug/drvTask.o
 .debug_ranges  0x00000738       0x20 Debug/debugging.o
 .debug_ranges  0x00000758      0x108 Debug/LedHandler.o
 .debug_ranges  0x00000860       0xf8 Debug/PushButton.o
 .debug_ranges  0x00000958       0xc0 Debug/core_cm3.o
 .debug_ranges  0x00000a18      0x100 Debug/system_stm32f10x.o
 .debug_ranges  0x00000b18      0x110 Debug/misc.o
 .debug_ranges  0x00000c28      0x230 Debug/stm32f10x_rcc.o
 .debug_ranges  0x00000e58      0x1a8 Debug/stm32f10x_flash.o
 .debug_ranges  0x00001000      0x178 Debug/stm32f10x_gpio.o
 .debug_ranges  0x00001178      0x3c0 Debug/stm32f10x_tim.o
 .debug_ranges  0x00001538      0x1a0 Debug/stm32f10x_spi.o
 .debug_ranges  0x000016d8      0x400 Debug/stm32_eth.o
 .debug_ranges  0x00001ad8       0x38 Debug/list.o
 .debug_ranges  0x00001b10       0x88 Debug/queue.o
 .debug_ranges  0x00001b98       0xd8 Debug/tasks.o
 .debug_ranges  0x00001c70       0x68 Debug/port.o
 .debug_ranges  0x00001cd8       0x30 Debug/heap_2.o
 .debug_ranges  0x00001d08      0x100 Debug/amiarm.o
 .debug_ranges  0x00001e08       0xc8 Debug/EplApiGeneric.o
 .debug_ranges  0x00001ed0       0x28 Debug/EplApiProcessImage.o
 .debug_ranges  0x00001ef8      0x120 Debug/EplDllk.o
 .debug_ranges  0x00002018       0x58 Debug/EplDllkCal.o
 .debug_ranges  0x00002070       0x50 Debug/EplDlluCal.o
 .debug_ranges  0x000020c0       0x50 Debug/EplErrorHandlerk.o
 .debug_ranges  0x00002110       0x40 Debug/EplEventk.o
 .debug_ranges  0x00002150       0x40 Debug/EplEventu.o
 .debug_ranges  0x00002190       0x50 Debug/EplIdentu.o
 .debug_ranges  0x000021e0       0x50 Debug/EplNmtCnu.o
 .debug_ranges  0x00002230       0x30 Debug/EplNmtk.o
 .debug_ranges  0x00002260       0x60 Debug/EplNmtu.o
 .debug_ranges  0x000022c0      0x168 Debug/EplObd.o
 .debug_ranges  0x00002428       0x58 Debug/EplPdok.o
 .debug_ranges  0x00002480       0x30 Debug/EplPdokCal.o
 .debug_ranges  0x000024b0       0x30 Debug/EplPdouCal.o
 .debug_ranges  0x000024e0       0x90 Debug/EplPdou.o
 .debug_ranges  0x00002570       0x48 Debug/EplSdoAsndu.o
 .debug_ranges  0x000025b8       0xb0 Debug/EplSdoAsySequ.o
 .debug_ranges  0x00002668       0xb0 Debug/EplSdoComu.o
 .debug_ranges  0x00002718       0x40 Debug/EplStatusu.o
 .debug_ranges  0x00002758       0x68 Debug/EplTimeruGeneric.o
 .debug_ranges  0x000027c0       0x30 Debug/EplApiFreeRTOS.o
 .debug_ranges  0x000027f0       0x18 Debug/Objdict.o
 .debug_ranges  0x00002808      0x180 Debug/EdrvF107.o
 .debug_ranges  0x00002988      0x140 Debug/STM32Timer.o
 .debug_ranges  0x00002ac8       0x28 Debug/startup_stm32f10x.o

.debug_str      0x00000000     0xd40d
 .debug_str     0x00000000      0x9e8 Debug/main.o
                                0xa6c (size before relaxing)
 .debug_str     0x000009e8       0x74 Debug/stm32f10x_it.o
                                0x84e (size before relaxing)
 .debug_str     0x00000a5c      0x212 Debug/stf_syscalls_minimal.o
                                0x316 (size before relaxing)
 .debug_str     0x00000c6e      0x289 Debug/ledTask.o
                                0xb98 (size before relaxing)
 .debug_str     0x00000ef7      0x358 Debug/stm3210c_eval_lcd.o
                                0xccb (size before relaxing)
 .debug_str     0x0000124f     0x3429 Debug/drvTask.o
                               0x3dfe (size before relaxing)
 .debug_str     0x00004678       0x21 Debug/debugging.o
                                 0x71 (size before relaxing)
 .debug_str     0x00004699       0x88 Debug/LedHandler.o
                                0x997 (size before relaxing)
 .debug_str     0x00004721       0x67 Debug/PushButton.o
                                0x9e1 (size before relaxing)
 .debug_str     0x00004788      0x182 Debug/core_cm3.o
                                0x278 (size before relaxing)
 .debug_str     0x0000490a      0x157 Debug/system_stm32f10x.o
                                0x941 (size before relaxing)
 .debug_str     0x00004a61      0x130 Debug/misc.o
                                0x9a1 (size before relaxing)
 .debug_str     0x00004b91      0x559 Debug/stm32f10x_rcc.o
                                0xdf9 (size before relaxing)
 .debug_str     0x000050ea      0x3a6 Debug/stm32f10x_flash.o
                                0xc01 (size before relaxing)
 .debug_str     0x00005490      0x246 Debug/stm32f10x_gpio.o
                                0xb9f (size before relaxing)
 .debug_str     0x000056d6      0xa7d Debug/stm32f10x_tim.o
                               0x1444 (size before relaxing)
 .debug_str     0x00006153      0x301 Debug/stm32f10x_spi.o
                                0xca5 (size before relaxing)
 .debug_str     0x00006454     0x1214 Debug/stm32_eth.o
                               0x1b5a (size before relaxing)
 .debug_str     0x00007668      0x145 Debug/list.o
                                0x216 (size before relaxing)
 .debug_str     0x000077ad      0x300 Debug/queue.o
                                0x494 (size before relaxing)
 .debug_str     0x00007aad      0x506 Debug/tasks.o
                                0x6dd (size before relaxing)
 .debug_str     0x00007fb3      0x12a Debug/port.o
                                0x1d9 (size before relaxing)
 .debug_str     0x000080dd      0x156 Debug/heap_2.o
                                0x23b (size before relaxing)
 .debug_str     0x00008233      0x2fc Debug/amiarm.o
                                0x405 (size before relaxing)
 .debug_str     0x0000852f      0xa75 Debug/EplApiGeneric.o
                               0x2ae5 (size before relaxing)
 .debug_str     0x00008fa4       0xb5 Debug/EplApiProcessImage.o
                                0xa0c (size before relaxing)
 .debug_str     0x00009059      0xfa9 Debug/EplDllk.o
                               0x29d9 (size before relaxing)
 .debug_str     0x0000a002      0x295 Debug/EplDllkCal.o
                               0x1a46 (size before relaxing)
 .debug_str     0x0000a297      0x143 Debug/EplDlluCal.o
                               0x19e0 (size before relaxing)
 .debug_str     0x0000a3da      0x18c Debug/EplErrorHandlerk.o
                               0x150a (size before relaxing)
 .debug_str     0x0000a566       0xfc Debug/EplEventk.o
                               0x1435 (size before relaxing)
 .debug_str     0x0000a662      0x108 Debug/EplEventu.o
                               0x110a (size before relaxing)
 .debug_str     0x0000a76a      0x172 Debug/EplIdentu.o
                               0x11db (size before relaxing)
 .debug_str     0x0000a8dc       0x34 Debug/EplLedu.o
                                0x109 (size before relaxing)
 .debug_str     0x0000a910      0x1e8 Debug/EplNmtCnu.o
                               0x19ec (size before relaxing)
 .debug_str     0x0000aaf8       0xd4 Debug/EplNmtk.o
                               0x13ed (size before relaxing)
 .debug_str     0x0000abcc       0x37 Debug/EplNmtkCal.o
                                0x10c (size before relaxing)
 .debug_str     0x0000ac03       0x36 Debug/EplNmtMnu.o
                                0x118 (size before relaxing)
 .debug_str     0x0000ac39      0x157 Debug/EplNmtu.o
                               0x148d (size before relaxing)
 .debug_str     0x0000ad90       0x37 Debug/EplNmtuCal.o
                                0x10c (size before relaxing)
 .debug_str     0x0000adc7      0x696 Debug/EplObd.o
                               0x15a5 (size before relaxing)
 .debug_str     0x0000b45d       0x37 Debug/EplObdkCal.o
                                0x119 (size before relaxing)
 .debug_str     0x0000b494       0x34 Debug/EplObdu.o
                                0x116 (size before relaxing)
 .debug_str     0x0000b4c8       0x37 Debug/EplObduCal.o
                                0x119 (size before relaxing)
 .debug_str     0x0000b4ff      0x2b6 Debug/EplPdok.o
                               0x14c2 (size before relaxing)
 .debug_str     0x0000b7b5       0xab Debug/EplPdokCal.o
                               0x1521 (size before relaxing)
 .debug_str     0x0000b860       0x8e Debug/EplPdouCal.o
                                0xf11 (size before relaxing)
 .debug_str     0x0000b8ee      0x3e8 Debug/EplPdou.o
                               0x16d7 (size before relaxing)
 .debug_str     0x0000bcd6      0x197 Debug/EplSdoAsndu.o
                               0x1325 (size before relaxing)
 .debug_str     0x0000be6d      0x63e Debug/EplSdoAsySequ.o
                               0x1af6 (size before relaxing)
 .debug_str     0x0000c4ab      0x686 Debug/EplSdoComu.o
                               0x1aba (size before relaxing)
 .debug_str     0x0000cb31       0x37 Debug/EplSdoUdpu.o
                                0x10c (size before relaxing)
 .debug_str     0x0000cb68       0xfc Debug/EplStatusu.o
                               0x117f (size before relaxing)
 .debug_str     0x0000cc64      0x22d Debug/EplTimeruGeneric.o
                               0x1010 (size before relaxing)
 .debug_str     0x0000ce91       0xb9 Debug/EplApiFreeRTOS.o
                                0xc8d (size before relaxing)
 .debug_str     0x0000cf4a       0x3b Debug/Objdict.o
                               0x1c21 (size before relaxing)
 .debug_str     0x0000cf85      0x25f Debug/EdrvF107.o
                               0x2669 (size before relaxing)
 .debug_str     0x0000d1e4      0x199 Debug/STM32Timer.o
                               0x1675 (size before relaxing)
 .debug_str     0x0000d37d       0x90 Debug/startup_stm32f10x.o
                                 0xea (size before relaxing)

.comment        0x00000000      0x9ae
 .comment       0x00000000       0x2a Debug/main.o
 .comment       0x0000002a       0x2a Debug/stm32f10x_it.o
 .comment       0x00000054       0x2a Debug/stf_syscalls_minimal.o
 .comment       0x0000007e       0x2a Debug/ledTask.o
 .comment       0x000000a8       0x2a Debug/stm3210c_eval_lcd.o
 .comment       0x000000d2       0x2a Debug/drvTask.o
 .comment       0x000000fc       0x2a Debug/debugging.o
 .comment       0x00000126       0x2a Debug/LedHandler.o
 .comment       0x00000150       0x2a Debug/PushButton.o
 .comment       0x0000017a       0x2a Debug/core_cm3.o
 .comment       0x000001a4       0x2a Debug/system_stm32f10x.o
 .comment       0x000001ce       0x2a Debug/misc.o
 .comment       0x000001f8       0x2a Debug/stm32f10x_rcc.o
 .comment       0x00000222       0x2a Debug/stm32f10x_flash.o
 .comment       0x0000024c       0x2a Debug/stm32f10x_gpio.o
 .comment       0x00000276       0x2a Debug/stm32f10x_tim.o
 .comment       0x000002a0       0x2a Debug/stm32f10x_spi.o
 .comment       0x000002ca       0x2a Debug/stm32_eth.o
 .comment       0x000002f4       0x2a Debug/list.o
 .comment       0x0000031e       0x2a Debug/queue.o
 .comment       0x00000348       0x2a Debug/tasks.o
 .comment       0x00000372       0x2a Debug/port.o
 .comment       0x0000039c       0x2a Debug/heap_2.o
 .comment       0x000003c6       0x2a Debug/amiarm.o
 .comment       0x000003f0       0x2a Debug/EplApiGeneric.o
 .comment       0x0000041a       0x2a Debug/EplApiProcessImage.o
 .comment       0x00000444       0x2a Debug/EplDllk.o
 .comment       0x0000046e       0x2a Debug/EplDllkCal.o
 .comment       0x00000498       0x2a Debug/EplDlluCal.o
 .comment       0x000004c2       0x2a Debug/EplErrorHandlerk.o
 .comment       0x000004ec       0x2a Debug/EplEventk.o
 .comment       0x00000516       0x2a Debug/EplEventu.o
 .comment       0x00000540       0x2a Debug/EplIdentu.o
 .comment       0x0000056a       0x2a Debug/EplLedu.o
 .comment       0x00000594       0x2a Debug/EplNmtCnu.o
 .comment       0x000005be       0x2a Debug/EplNmtk.o
 .comment       0x000005e8       0x2a Debug/EplNmtkCal.o
 .comment       0x00000612       0x2a Debug/EplNmtMnu.o
 .comment       0x0000063c       0x2a Debug/EplNmtu.o
 .comment       0x00000666       0x2a Debug/EplNmtuCal.o
 .comment       0x00000690       0x2a Debug/EplObd.o
 .comment       0x000006ba       0x2a Debug/EplObdkCal.o
 .comment       0x000006e4       0x2a Debug/EplObdu.o
 .comment       0x0000070e       0x2a Debug/EplObduCal.o
 .comment       0x00000738       0x2a Debug/EplPdok.o
 .comment       0x00000762       0x2a Debug/EplPdokCal.o
 .comment       0x0000078c       0x2a Debug/EplPdouCal.o
 .comment       0x000007b6       0x2a Debug/EplPdou.o
 .comment       0x000007e0       0x2a Debug/EplSdoAsndu.o
 .comment       0x0000080a       0x2a Debug/EplSdoAsySequ.o
 .comment       0x00000834       0x2a Debug/EplSdoComu.o
 .comment       0x0000085e       0x2a Debug/EplSdoUdpu.o
 .comment       0x00000888       0x2a Debug/EplStatusu.o
 .comment       0x000008b2       0x2a Debug/EplTimeruGeneric.o
 .comment       0x000008dc       0x2a Debug/EplApiFreeRTOS.o
 .comment       0x00000906       0x2a Debug/Objdict.o
 .comment       0x00000930       0x2a Debug/EdrvF107.o
 .comment       0x0000095a       0x2a Debug/STM32Timer.o
 .comment       0x00000984       0x2a Debug/startup_stm32f10x.o

.ARM.attributes
                0x00000000       0x31
 .ARM.attributes
                0x00000000       0x31 Debug/main.o
 .ARM.attributes
                0x00000031       0x31 Debug/stm32f10x_it.o
 .ARM.attributes
                0x00000062       0x31 Debug/stf_syscalls_minimal.o
 .ARM.attributes
                0x00000093       0x31 Debug/ledTask.o
 .ARM.attributes
                0x000000c4       0x31 Debug/stm3210c_eval_lcd.o
 .ARM.attributes
                0x000000f5       0x31 Debug/drvTask.o
 .ARM.attributes
                0x00000126       0x31 Debug/debugging.o
 .ARM.attributes
                0x00000157       0x31 Debug/LedHandler.o
 .ARM.attributes
                0x00000188       0x31 Debug/PushButton.o
 .ARM.attributes
                0x000001b9       0x31 Debug/core_cm3.o
 .ARM.attributes
                0x000001ea       0x31 Debug/system_stm32f10x.o
 .ARM.attributes
                0x0000021b       0x31 Debug/misc.o
 .ARM.attributes
                0x0000024c       0x31 Debug/stm32f10x_rcc.o
 .ARM.attributes
                0x0000027d       0x31 Debug/stm32f10x_flash.o
 .ARM.attributes
                0x000002ae       0x31 Debug/stm32f10x_gpio.o
 .ARM.attributes
                0x000002df       0x31 Debug/stm32f10x_tim.o
 .ARM.attributes
                0x00000310       0x31 Debug/stm32f10x_spi.o
 .ARM.attributes
                0x00000341       0x31 Debug/stm32_eth.o
 .ARM.attributes
                0x00000372       0x31 Debug/list.o
 .ARM.attributes
                0x000003a3       0x31 Debug/queue.o
 .ARM.attributes
                0x000003d4       0x31 Debug/tasks.o
 .ARM.attributes
                0x00000405       0x31 Debug/port.o
 .ARM.attributes
                0x00000436       0x31 Debug/heap_2.o
 .ARM.attributes
                0x00000467       0x31 Debug/amiarm.o
 .ARM.attributes
                0x00000498       0x31 Debug/EplApiGeneric.o
 .ARM.attributes
                0x000004c9       0x31 Debug/EplApiProcessImage.o
 .ARM.attributes
                0x000004fa       0x31 Debug/EplDllk.o
 .ARM.attributes
                0x0000052b       0x31 Debug/EplDllkCal.o
 .ARM.attributes
                0x0000055c       0x31 Debug/EplDlluCal.o
 .ARM.attributes
                0x0000058d       0x31 Debug/EplErrorHandlerk.o
 .ARM.attributes
                0x000005be       0x31 Debug/EplEventk.o
 .ARM.attributes
                0x000005ef       0x31 Debug/EplEventu.o
 .ARM.attributes
                0x00000620       0x31 Debug/EplIdentu.o
 .ARM.attributes
                0x00000651       0x31 Debug/EplLedu.o
 .ARM.attributes
                0x00000682       0x31 Debug/EplNmtCnu.o
 .ARM.attributes
                0x000006b3       0x31 Debug/EplNmtk.o
 .ARM.attributes
                0x000006e4       0x31 Debug/EplNmtkCal.o
 .ARM.attributes
                0x00000715       0x31 Debug/EplNmtMnu.o
 .ARM.attributes
                0x00000746       0x31 Debug/EplNmtu.o
 .ARM.attributes
                0x00000777       0x31 Debug/EplNmtuCal.o
 .ARM.attributes
                0x000007a8       0x31 Debug/EplObd.o
 .ARM.attributes
                0x000007d9       0x31 Debug/EplObdkCal.o
 .ARM.attributes
                0x0000080a       0x31 Debug/EplObdu.o
 .ARM.attributes
                0x0000083b       0x31 Debug/EplObduCal.o
 .ARM.attributes
                0x0000086c       0x31 Debug/EplPdok.o
 .ARM.attributes
                0x0000089d       0x31 Debug/EplPdokCal.o
 .ARM.attributes
                0x000008ce       0x31 Debug/EplPdouCal.o
 .ARM.attributes
                0x000008ff       0x31 Debug/EplPdou.o
 .ARM.attributes
                0x00000930       0x31 Debug/EplSdoAsndu.o
 .ARM.attributes
                0x00000961       0x31 Debug/EplSdoAsySequ.o
 .ARM.attributes
                0x00000992       0x31 Debug/EplSdoComu.o
 .ARM.attributes
                0x000009c3       0x31 Debug/EplSdoUdpu.o
 .ARM.attributes
                0x000009f4       0x31 Debug/EplStatusu.o
 .ARM.attributes
                0x00000a25       0x31 Debug/EplTimeruGeneric.o
 .ARM.attributes
                0x00000a56       0x31 Debug/EplApiFreeRTOS.o
 .ARM.attributes
                0x00000a87       0x31 Debug/Objdict.o
 .ARM.attributes
                0x00000ab8       0x31 Debug/EdrvF107.o
 .ARM.attributes
                0x00000ae9       0x31 Debug/STM32Timer.o
 .ARM.attributes
                0x00000b1a       0x31 Debug/startup_stm32f10x.o
 .ARM.attributes
                0x00000b4b       0x19 c:/program files/codesourcery/sourcery g++ lite/bin/../lib/gcc/arm-none-eabi/4.4.1/thumb2\libgcc.a(_arm_addsubsf3.o)
 .ARM.attributes
                0x00000b64       0x19 c:/program files/codesourcery/sourcery g++ lite/bin/../lib/gcc/arm-none-eabi/4.4.1/thumb2\libgcc.a(_arm_muldivsf3.o)
 .ARM.attributes
                0x00000b7d       0x19 c:/program files/codesourcery/sourcery g++ lite/bin/../lib/gcc/arm-none-eabi/4.4.1/thumb2\libgcc.a(_arm_fixsfsi.o)
 .ARM.attributes
                0x00000b96       0x27 c:/program files/codesourcery/sourcery g++ lite/bin/../lib/gcc/arm-none-eabi/4.4.1/../../../../arm-none-eabi/lib/thumb2\libc.a(lib_a-assert.o)
 .ARM.attributes
                0x00000bbd       0x27 c:/program files/codesourcery/sourcery g++ lite/bin/../lib/gcc/arm-none-eabi/4.4.1/../../../../arm-none-eabi/lib/thumb2\libc.a(lib_a-fiprintf.o)
 .ARM.attributes
                0x00000be4       0x27 c:/program files/codesourcery/sourcery g++ lite/bin/../lib/gcc/arm-none-eabi/4.4.1/../../../../arm-none-eabi/lib/thumb2\libc.a(lib_a-impure.o)
 .ARM.attributes
                0x00000c0b       0x27 c:/program files/codesourcery/sourcery g++ lite/bin/../lib/gcc/arm-none-eabi/4.4.1/../../../../arm-none-eabi/lib/thumb2\libc.a(lib_a-memcpy.o)
 .ARM.attributes
                0x00000c32       0x27 c:/program files/codesourcery/sourcery g++ lite/bin/../lib/gcc/arm-none-eabi/4.4.1/../../../../arm-none-eabi/lib/thumb2\libc.a(lib_a-memset.o)
 .ARM.attributes
                0x00000c59       0x27 c:/program files/codesourcery/sourcery g++ lite/bin/../lib/gcc/arm-none-eabi/4.4.1/../../../../arm-none-eabi/lib/thumb2\libc.a(lib_a-printf.o)
 .ARM.attributes
                0x00000c80       0x27 c:/program files/codesourcery/sourcery g++ lite/bin/../lib/gcc/arm-none-eabi/4.4.1/../../../../arm-none-eabi/lib/thumb2\libc.a(lib_a-reent.o)
 .ARM.attributes
                0x00000ca7       0x27 c:/program files/codesourcery/sourcery g++ lite/bin/../lib/gcc/arm-none-eabi/4.4.1/../../../../arm-none-eabi/lib/thumb2\libc.a(lib_a-strlen.o)
 .ARM.attributes
                0x00000cce       0x27 c:/program files/codesourcery/sourcery g++ lite/bin/../lib/gcc/arm-none-eabi/4.4.1/../../../../arm-none-eabi/lib/thumb2\libc.a(lib_a-strncpy.o)
 .ARM.attributes
                0x00000cf5       0x27 c:/program files/codesourcery/sourcery g++ lite/bin/../lib/gcc/arm-none-eabi/4.4.1/../../../../arm-none-eabi/lib/thumb2\libc.a(lib_a-vfiprintf.o)
 .ARM.attributes
                0x00000d1c       0x27 c:/program files/codesourcery/sourcery g++ lite/bin/../lib/gcc/arm-none-eabi/4.4.1/../../../../arm-none-eabi/lib/thumb2\libc.a(lib_a-vfprintf.o)
 .ARM.attributes
                0x00000d43       0x27 c:/program files/codesourcery/sourcery g++ lite/bin/../lib/gcc/arm-none-eabi/4.4.1/../../../../arm-none-eabi/lib/thumb2\libc.a(lib_a-wsetup.o)
 .ARM.attributes
                0x00000d6a       0x27 c:/program files/codesourcery/sourcery g++ lite/bin/../lib/gcc/arm-none-eabi/4.4.1/../../../../arm-none-eabi/lib/thumb2\libc.a(lib_a-abort.o)
 .ARM.attributes
                0x00000d91       0x27 c:/program files/codesourcery/sourcery g++ lite/bin/../lib/gcc/arm-none-eabi/4.4.1/../../../../arm-none-eabi/lib/thumb2\libc.a(lib_a-dtoa.o)
 .ARM.attributes
                0x00000db8       0x27 c:/program files/codesourcery/sourcery g++ lite/bin/../lib/gcc/arm-none-eabi/4.4.1/../../../../arm-none-eabi/lib/thumb2\libc.a(lib_a-fflush.o)
 .ARM.attributes
                0x00000ddf       0x27 c:/program files/codesourcery/sourcery g++ lite/bin/../lib/gcc/arm-none-eabi/4.4.1/../../../../arm-none-eabi/lib/thumb2\libc.a(lib_a-findfp.o)
 .ARM.attributes
                0x00000e06       0x27 c:/program files/codesourcery/sourcery g++ lite/bin/../lib/gcc/arm-none-eabi/4.4.1/../../../../arm-none-eabi/lib/thumb2\libc.a(lib_a-freer.o)
 .ARM.attributes
                0x00000e2d       0x27 c:/program files/codesourcery/sourcery g++ lite/bin/../lib/gcc/arm-none-eabi/4.4.1/../../../../arm-none-eabi/lib/thumb2\libc.a(lib_a-fvwrite.o)
 .ARM.attributes
                0x00000e54       0x27 c:/program files/codesourcery/sourcery g++ lite/bin/../lib/gcc/arm-none-eabi/4.4.1/../../../../arm-none-eabi/lib/thumb2\libc.a(lib_a-fwalk.o)
 .ARM.attributes
                0x00000e7b       0x27 c:/program files/codesourcery/sourcery g++ lite/bin/../lib/gcc/arm-none-eabi/4.4.1/../../../../arm-none-eabi/lib/thumb2\libc.a(lib_a-locale.o)
 .ARM.attributes
                0x00000ea2       0x27 c:/program files/codesourcery/sourcery g++ lite/bin/../lib/gcc/arm-none-eabi/4.4.1/../../../../arm-none-eabi/lib/thumb2\libc.a(lib_a-makebuf.o)
 .ARM.attributes
                0x00000ec9       0x27 c:/program files/codesourcery/sourcery g++ lite/bin/../lib/gcc/arm-none-eabi/4.4.1/../../../../arm-none-eabi/lib/thumb2\libc.a(lib_a-malloc.o)
 .ARM.attributes
                0x00000ef0       0x27 c:/program files/codesourcery/sourcery g++ lite/bin/../lib/gcc/arm-none-eabi/4.4.1/../../../../arm-none-eabi/lib/thumb2\libc.a(lib_a-mallocr.o)
 .ARM.attributes
                0x00000f17       0x27 c:/program files/codesourcery/sourcery g++ lite/bin/../lib/gcc/arm-none-eabi/4.4.1/../../../../arm-none-eabi/lib/thumb2\libc.a(lib_a-memchr.o)
 .ARM.attributes
                0x00000f3e       0x27 c:/program files/codesourcery/sourcery g++ lite/bin/../lib/gcc/arm-none-eabi/4.4.1/../../../../arm-none-eabi/lib/thumb2\libc.a(lib_a-memmove.o)
 .ARM.attributes
                0x00000f65       0x27 c:/program files/codesourcery/sourcery g++ lite/bin/../lib/gcc/arm-none-eabi/4.4.1/../../../../arm-none-eabi/lib/thumb2\libc.a(lib_a-mlock.o)
 .ARM.attributes
                0x00000f8c       0x27 c:/program files/codesourcery/sourcery g++ lite/bin/../lib/gcc/arm-none-eabi/4.4.1/../../../../arm-none-eabi/lib/thumb2\libc.a(lib_a-mprec.o)
 .ARM.attributes
                0x00000fb3       0x27 c:/program files/codesourcery/sourcery g++ lite/bin/../lib/gcc/arm-none-eabi/4.4.1/../../../../arm-none-eabi/lib/thumb2\libc.a(lib_a-reallocr.o)
 .ARM.attributes
                0x00000fda       0x27 c:/program files/codesourcery/sourcery g++ lite/bin/../lib/gcc/arm-none-eabi/4.4.1/../../../../arm-none-eabi/lib/thumb2\libc.a(lib_a-s_isinfd.o)
 .ARM.attributes
                0x00001001       0x27 c:/program files/codesourcery/sourcery g++ lite/bin/../lib/gcc/arm-none-eabi/4.4.1/../../../../arm-none-eabi/lib/thumb2\libc.a(lib_a-s_isnand.o)
 .ARM.attributes
                0x00001028       0x27 c:/program files/codesourcery/sourcery g++ lite/bin/../lib/gcc/arm-none-eabi/4.4.1/../../../../arm-none-eabi/lib/thumb2\libc.a(lib_a-sbrkr.o)
 .ARM.attributes
                0x0000104f       0x27 c:/program files/codesourcery/sourcery g++ lite/bin/../lib/gcc/arm-none-eabi/4.4.1/../../../../arm-none-eabi/lib/thumb2\libc.a(lib_a-signal.o)
 .ARM.attributes
                0x00001076       0x27 c:/program files/codesourcery/sourcery g++ lite/bin/../lib/gcc/arm-none-eabi/4.4.1/../../../../arm-none-eabi/lib/thumb2\libc.a(lib_a-signalr.o)
 .ARM.attributes
                0x0000109d       0x27 c:/program files/codesourcery/sourcery g++ lite/bin/../lib/gcc/arm-none-eabi/4.4.1/../../../../arm-none-eabi/lib/thumb2\libc.a(lib_a-stdio.o)
 .ARM.attributes
                0x000010c4       0x27 c:/program files/codesourcery/sourcery g++ lite/bin/../lib/gcc/arm-none-eabi/4.4.1/../../../../arm-none-eabi/lib/thumb2\libc.a(lib_a-strcmp.o)
 .ARM.attributes
                0x000010eb       0x27 c:/program files/codesourcery/sourcery g++ lite/bin/../lib/gcc/arm-none-eabi/4.4.1/../../../../arm-none-eabi/lib/thumb2\libc.a(lib_a-writer.o)
 .ARM.attributes
                0x00001112       0x27 c:/program files/codesourcery/sourcery g++ lite/bin/../lib/gcc/arm-none-eabi/4.4.1/../../../../arm-none-eabi/lib/thumb2\libc.a(lib_a-callocr.o)
 .ARM.attributes
                0x00001139       0x27 c:/program files/codesourcery/sourcery g++ lite/bin/../lib/gcc/arm-none-eabi/4.4.1/../../../../arm-none-eabi/lib/thumb2\libc.a(lib_a-closer.o)
 .ARM.attributes
                0x00001160       0x27 c:/program files/codesourcery/sourcery g++ lite/bin/../lib/gcc/arm-none-eabi/4.4.1/../../../../arm-none-eabi/lib/thumb2\libc.a(lib_a-fclose.o)
 .ARM.attributes
                0x00001187       0x27 c:/program files/codesourcery/sourcery g++ lite/bin/../lib/gcc/arm-none-eabi/4.4.1/../../../../arm-none-eabi/lib/thumb2\libc.a(lib_a-fstatr.o)
 .ARM.attributes
                0x000011ae       0x27 c:/program files/codesourcery/sourcery g++ lite/bin/../lib/gcc/arm-none-eabi/4.4.1/../../../../arm-none-eabi/lib/thumb2\libc.a(lib_a-isattyr.o)
 .ARM.attributes
                0x000011d5       0x27 c:/program files/codesourcery/sourcery g++ lite/bin/../lib/gcc/arm-none-eabi/4.4.1/../../../../arm-none-eabi/lib/thumb2\libc.a(lib_a-lseekr.o)
 .ARM.attributes
                0x000011fc       0x27 c:/program files/codesourcery/sourcery g++ lite/bin/../lib/gcc/arm-none-eabi/4.4.1/../../../../arm-none-eabi/lib/thumb2\libc.a(lib_a-readr.o)
 .ARM.attributes
                0x00001223       0x19 c:/program files/codesourcery/sourcery g++ lite/bin/../lib/gcc/arm-none-eabi/4.4.1/thumb2\libgcc.a(_udivsi3.o)
 .ARM.attributes
                0x0000123c       0x19 c:/program files/codesourcery/sourcery g++ lite/bin/../lib/gcc/arm-none-eabi/4.4.1/thumb2\libgcc.a(_dvmd_tls.o)
 .ARM.attributes
                0x00001255       0x19 c:/program files/codesourcery/sourcery g++ lite/bin/../lib/gcc/arm-none-eabi/4.4.1/thumb2\libgcc.a(_arm_addsubdf3.o)
 .ARM.attributes
                0x0000126e       0x19 c:/program files/codesourcery/sourcery g++ lite/bin/../lib/gcc/arm-none-eabi/4.4.1/thumb2\libgcc.a(_arm_muldivdf3.o)
 .ARM.attributes
                0x00001287       0x19 c:/program files/codesourcery/sourcery g++ lite/bin/../lib/gcc/arm-none-eabi/4.4.1/thumb2\libgcc.a(_arm_cmpdf2.o)
 .ARM.attributes
                0x000012a0       0x19 c:/program files/codesourcery/sourcery g++ lite/bin/../lib/gcc/arm-none-eabi/4.4.1/thumb2\libgcc.a(_arm_fixdfsi.o)
 .ARM.attributes
                0x000012b9       0x19 c:/program files/codesourcery/sourcery g++ lite/bin/../lib/gcc/arm-none-eabi/4.4.1/thumb2\libgcc.a(_aeabi_uldivmod.o)
 .ARM.attributes
                0x000012d2       0x27 c:/program files/codesourcery/sourcery g++ lite/bin/../lib/gcc/arm-none-eabi/4.4.1/thumb2\libgcc.a(bpabi.o)
 .ARM.attributes
                0x000012f9       0x27 c:/program files/codesourcery/sourcery g++ lite/bin/../lib/gcc/arm-none-eabi/4.4.1/thumb2\libgcc.a(_divdi3.o)
 .ARM.attributes
                0x00001320       0x27 c:/program files/codesourcery/sourcery g++ lite/bin/../lib/gcc/arm-none-eabi/4.4.1/thumb2\libgcc.a(_udivdi3.o)
